ARM GAS  C:\Users\vngel\AppData\Local\Temp\ccf1b4Zx.s 			page 1


   1              		.cpu cortex-m7
   2              		.eabi_attribute 28, 1
   3              		.eabi_attribute 20, 1
   4              		.eabi_attribute 21, 1
   5              		.eabi_attribute 23, 3
   6              		.eabi_attribute 24, 1
   7              		.eabi_attribute 25, 1
   8              		.eabi_attribute 26, 1
   9              		.eabi_attribute 30, 2
  10              		.eabi_attribute 34, 1
  11              		.eabi_attribute 18, 4
  12              		.file	"MyNewProject.cpp"
  13              		.text
  14              	.Ltext0:
  15              		.cfi_sections	.debug_frame
  16              		.section	.text._ZN7daisysp7BalanceD2Ev,"axG",%progbits,_ZN7daisysp7BalanceD5Ev,comdat
  17              		.align	1
  18              		.p2align 2,,3
  19              		.weak	_ZN7daisysp7BalanceD2Ev
  20              		.arch armv7e-m
  21              		.syntax unified
  22              		.thumb
  23              		.thumb_func
  24              		.fpu fpv5-d16
  26              	_ZN7daisysp7BalanceD2Ev:
  27              	.LVL0:
  28              	.LFB2920:
  29              		.file 1 "../../DaisySP//Source/Dynamics/balance.h"
   1:../../DaisySP//Source/Dynamics/balance.h **** 
   2:../../DaisySP//Source/Dynamics/balance.h **** #pragma once
   3:../../DaisySP//Source/Dynamics/balance.h **** #ifndef DSY_BALANCE_H
   4:../../DaisySP//Source/Dynamics/balance.h **** #define DSY_BALANCE_H
   5:../../DaisySP//Source/Dynamics/balance.h **** 
   6:../../DaisySP//Source/Dynamics/balance.h **** #include <stdint.h>
   7:../../DaisySP//Source/Dynamics/balance.h **** #ifdef __cplusplus
   8:../../DaisySP//Source/Dynamics/balance.h **** 
   9:../../DaisySP//Source/Dynamics/balance.h **** namespace daisysp
  10:../../DaisySP//Source/Dynamics/balance.h **** {
  11:../../DaisySP//Source/Dynamics/balance.h **** /** Balances two sound sources. Sig is boosted to the level of comp.
  12:../../DaisySP//Source/Dynamics/balance.h **** 
  13:../../DaisySP//Source/Dynamics/balance.h ****     *Original author(s) : Barry Vercoe, john ffitch, Gabriel Maldonado
  14:../../DaisySP//Source/Dynamics/balance.h **** 
  15:../../DaisySP//Source/Dynamics/balance.h ****     *Year: 1991
  16:../../DaisySP//Source/Dynamics/balance.h **** 
  17:../../DaisySP//Source/Dynamics/balance.h ****     *Ported from soundpipe by Ben Sergentanis, May 2020
  18:../../DaisySP//Source/Dynamics/balance.h **** */
  19:../../DaisySP//Source/Dynamics/balance.h **** class Balance
  20:../../DaisySP//Source/Dynamics/balance.h **** {
  21:../../DaisySP//Source/Dynamics/balance.h ****   public:
  22:../../DaisySP//Source/Dynamics/balance.h ****     Balance() {}
  23:../../DaisySP//Source/Dynamics/balance.h ****     ~Balance() {}
  30              		.loc 1 23 5 view -0
  31              		.cfi_startproc
  32              		@ args = 0, pretend = 0, frame = 0
  33              		@ frame_needed = 0, uses_anonymous_args = 0
  34              		@ link register save eliminated.
  35              		.loc 1 23 17 is_stmt 0 view .LVU1
ARM GAS  C:\Users\vngel\AppData\Local\Temp\ccf1b4Zx.s 			page 2


  36 0000 7047     		bx	lr
  37              		.cfi_endproc
  38              	.LFE2920:
  40              		.weak	_ZN7daisysp7BalanceD1Ev
  41              		.thumb_set _ZN7daisysp7BalanceD1Ev,_ZN7daisysp7BalanceD2Ev
  42 0002 00BF     		.section	.text._ZN7daisysp9CrossFadeD2Ev,"axG",%progbits,_ZN7daisysp9CrossFadeD5Ev,comdat
  43              		.align	1
  44              		.p2align 2,,3
  45              		.weak	_ZN7daisysp9CrossFadeD2Ev
  46              		.syntax unified
  47              		.thumb
  48              		.thumb_func
  49              		.fpu fpv5-d16
  51              	_ZN7daisysp9CrossFadeD2Ev:
  52              	.LVL1:
  53              	.LFB2952:
  54              		.file 2 "../../DaisySP//Source/Dynamics/crossfade.h"
   1:../../DaisySP//Source/Dynamics/crossfade.h **** #pragma once
   2:../../DaisySP//Source/Dynamics/crossfade.h **** #ifndef DSY_CROSSFADE_H
   3:../../DaisySP//Source/Dynamics/crossfade.h **** #define DSY_CROSSFADE_H
   4:../../DaisySP//Source/Dynamics/crossfade.h **** #include <stdint.h>
   5:../../DaisySP//Source/Dynamics/crossfade.h **** #ifdef __cplusplus
   6:../../DaisySP//Source/Dynamics/crossfade.h **** 
   7:../../DaisySP//Source/Dynamics/crossfade.h **** namespace daisysp
   8:../../DaisySP//Source/Dynamics/crossfade.h **** {
   9:../../DaisySP//Source/Dynamics/crossfade.h **** /** Curve applied to the CrossFade
  10:../../DaisySP//Source/Dynamics/crossfade.h **** - LIN = linear
  11:../../DaisySP//Source/Dynamics/crossfade.h **** - CPOW = constant power
  12:../../DaisySP//Source/Dynamics/crossfade.h **** - LOG = logarithmic
  13:../../DaisySP//Source/Dynamics/crossfade.h **** - EXP  exponential
  14:../../DaisySP//Source/Dynamics/crossfade.h **** - LAST = end of enum (used for array indexing)
  15:../../DaisySP//Source/Dynamics/crossfade.h **** */
  16:../../DaisySP//Source/Dynamics/crossfade.h **** enum
  17:../../DaisySP//Source/Dynamics/crossfade.h **** {
  18:../../DaisySP//Source/Dynamics/crossfade.h ****     CROSSFADE_LIN,
  19:../../DaisySP//Source/Dynamics/crossfade.h ****     CROSSFADE_CPOW,
  20:../../DaisySP//Source/Dynamics/crossfade.h ****     CROSSFADE_LOG,
  21:../../DaisySP//Source/Dynamics/crossfade.h ****     CROSSFADE_EXP,
  22:../../DaisySP//Source/Dynamics/crossfade.h ****     CROSSFADE_LAST,
  23:../../DaisySP//Source/Dynamics/crossfade.h **** };
  24:../../DaisySP//Source/Dynamics/crossfade.h **** 
  25:../../DaisySP//Source/Dynamics/crossfade.h **** /** Performs a CrossFade between two signals
  26:../../DaisySP//Source/Dynamics/crossfade.h **** 
  27:../../DaisySP//Source/Dynamics/crossfade.h ****     Original author: Paul Batchelor
  28:../../DaisySP//Source/Dynamics/crossfade.h **** 
  29:../../DaisySP//Source/Dynamics/crossfade.h ****     Ported from Soundpipe by Andrew Ikenberry
  30:../../DaisySP//Source/Dynamics/crossfade.h **** 
  31:../../DaisySP//Source/Dynamics/crossfade.h ****     added curve option for constant power, etc.
  32:../../DaisySP//Source/Dynamics/crossfade.h **** */
  33:../../DaisySP//Source/Dynamics/crossfade.h **** class CrossFade
  34:../../DaisySP//Source/Dynamics/crossfade.h **** {
  35:../../DaisySP//Source/Dynamics/crossfade.h ****   public:
  36:../../DaisySP//Source/Dynamics/crossfade.h ****     CrossFade() {}
  37:../../DaisySP//Source/Dynamics/crossfade.h ****     ~CrossFade() {}
  55              		.loc 2 37 5 is_stmt 1 view -0
  56              		.cfi_startproc
  57              		@ args = 0, pretend = 0, frame = 0
ARM GAS  C:\Users\vngel\AppData\Local\Temp\ccf1b4Zx.s 			page 3


  58              		@ frame_needed = 0, uses_anonymous_args = 0
  59              		@ link register save eliminated.
  60              		.loc 2 37 19 is_stmt 0 view .LVU3
  61 0000 7047     		bx	lr
  62              		.cfi_endproc
  63              	.LFE2952:
  65              		.weak	_ZN7daisysp9CrossFadeD1Ev
  66              		.thumb_set _ZN7daisysp9CrossFadeD1Ev,_ZN7daisysp9CrossFadeD2Ev
  67              		.section	.text._ZN5daisy6SwitchD2Ev,"axG",%progbits,_ZN5daisy6SwitchD5Ev,comdat
  68              		.align	1
  69              		.p2align 2,,3
  70              		.weak	_ZN5daisy6SwitchD2Ev
  71              		.syntax unified
  72              		.thumb
  73              		.thumb_func
  74              		.fpu fpv5-d16
  76              	_ZN5daisy6SwitchD2Ev:
  77              	.LVL2:
  78              	.LFB3866:
  79              		.file 3 "../../libDaisy//src/hid/switch.h"
   1:../../libDaisy//src/hid/switch.h **** #pragma once
   2:../../libDaisy//src/hid/switch.h **** #ifndef DSY_SWITCH_H
   3:../../libDaisy//src/hid/switch.h **** #define DSY_SWITCH_H
   4:../../libDaisy//src/hid/switch.h **** #include "daisy_core.h"
   5:../../libDaisy//src/hid/switch.h **** #include "per/gpio.h"
   6:../../libDaisy//src/hid/switch.h **** #include "sys/system.h"
   7:../../libDaisy//src/hid/switch.h **** 
   8:../../libDaisy//src/hid/switch.h **** namespace daisy
   9:../../libDaisy//src/hid/switch.h **** {
  10:../../libDaisy//src/hid/switch.h **** /** 
  11:../../libDaisy//src/hid/switch.h ****     Generic Class for handling momentary/latching switches \n 
  12:../../libDaisy//src/hid/switch.h ****     Inspired/influenced by Mutable Instruments (pichenettes) Switch classes
  13:../../libDaisy//src/hid/switch.h ****     @author Stephen Hensley
  14:../../libDaisy//src/hid/switch.h ****     @date December 2019
  15:../../libDaisy//src/hid/switch.h ****     @ingroup controls
  16:../../libDaisy//src/hid/switch.h **** */
  17:../../libDaisy//src/hid/switch.h **** class Switch
  18:../../libDaisy//src/hid/switch.h **** {
  19:../../libDaisy//src/hid/switch.h ****   public:
  20:../../libDaisy//src/hid/switch.h ****     /** Specifies the expected behavior of the switch */
  21:../../libDaisy//src/hid/switch.h ****     enum Type
  22:../../libDaisy//src/hid/switch.h ****     {
  23:../../libDaisy//src/hid/switch.h ****         TYPE_TOGGLE,    /**< & */
  24:../../libDaisy//src/hid/switch.h ****         TYPE_MOMENTARY, /**< & */
  25:../../libDaisy//src/hid/switch.h ****     };
  26:../../libDaisy//src/hid/switch.h ****     /** Specifies whether the pressed is HIGH or LOW. */
  27:../../libDaisy//src/hid/switch.h ****     enum Polarity
  28:../../libDaisy//src/hid/switch.h ****     {
  29:../../libDaisy//src/hid/switch.h ****         POLARITY_NORMAL,   /**< & */
  30:../../libDaisy//src/hid/switch.h ****         POLARITY_INVERTED, /**< & */
  31:../../libDaisy//src/hid/switch.h ****     };
  32:../../libDaisy//src/hid/switch.h **** 
  33:../../libDaisy//src/hid/switch.h ****     /** Specifies whether to use built-in Pull Up/Down resistors to hold button at a given state wh
  34:../../libDaisy//src/hid/switch.h ****     enum Pull
  35:../../libDaisy//src/hid/switch.h ****     {
  36:../../libDaisy//src/hid/switch.h ****         PULL_UP,   /**< & */
  37:../../libDaisy//src/hid/switch.h ****         PULL_DOWN, /**< & */
ARM GAS  C:\Users\vngel\AppData\Local\Temp\ccf1b4Zx.s 			page 4


  38:../../libDaisy//src/hid/switch.h ****         PULL_NONE, /**< & */
  39:../../libDaisy//src/hid/switch.h ****     };
  40:../../libDaisy//src/hid/switch.h **** 
  41:../../libDaisy//src/hid/switch.h ****     Switch() {}
  42:../../libDaisy//src/hid/switch.h ****     ~Switch() {}
  80              		.loc 3 42 5 is_stmt 1 view -0
  81              		.cfi_startproc
  82              		@ args = 0, pretend = 0, frame = 0
  83              		@ frame_needed = 0, uses_anonymous_args = 0
  84              		@ link register save eliminated.
  85              		.loc 3 42 16 is_stmt 0 view .LVU5
  86 0000 7047     		bx	lr
  87              		.cfi_endproc
  88              	.LFE3866:
  90              		.weak	_ZN5daisy6SwitchD1Ev
  91              		.thumb_set _ZN5daisy6SwitchD1Ev,_ZN5daisy6SwitchD2Ev
  92              		.section	.text._ZN5daisy9ParameterD2Ev,"axG",%progbits,_ZN5daisy9ParameterD5Ev,comdat
  93              		.align	1
  94              		.p2align 2,,3
  95              		.weak	_ZN5daisy9ParameterD2Ev
  96              		.syntax unified
  97              		.thumb
  98              		.thumb_func
  99              		.fpu fpv5-d16
 101              	_ZN5daisy9ParameterD2Ev:
 102              	.LVL3:
 103              	.LFB3915:
 104              		.file 4 "../../libDaisy//src/hid/parameter.h"
   1:../../libDaisy//src/hid/parameter.h **** #pragma once
   2:../../libDaisy//src/hid/parameter.h **** #include <stdint.h>
   3:../../libDaisy//src/hid/parameter.h **** #include "hid/ctrl.h"
   4:../../libDaisy//src/hid/parameter.h **** 
   5:../../libDaisy//src/hid/parameter.h **** namespace daisy
   6:../../libDaisy//src/hid/parameter.h **** {
   7:../../libDaisy//src/hid/parameter.h **** /** @addtogroup controls
   8:../../libDaisy//src/hid/parameter.h ****     @{
   9:../../libDaisy//src/hid/parameter.h **** */
  10:../../libDaisy//src/hid/parameter.h **** 
  11:../../libDaisy//src/hid/parameter.h **** /**      Simple parameter mapping tool that takes a 0-1 input from an hid_ctrl. */
  12:../../libDaisy//src/hid/parameter.h **** class Parameter
  13:../../libDaisy//src/hid/parameter.h **** {
  14:../../libDaisy//src/hid/parameter.h ****   public:
  15:../../libDaisy//src/hid/parameter.h ****     /** Curves are applied to the output signal */
  16:../../libDaisy//src/hid/parameter.h ****     enum Curve
  17:../../libDaisy//src/hid/parameter.h ****     {
  18:../../libDaisy//src/hid/parameter.h ****         LINEAR,      /**< Linear curve */
  19:../../libDaisy//src/hid/parameter.h ****         EXPONENTIAL, /**< Exponential curve */
  20:../../libDaisy//src/hid/parameter.h ****         LOGARITHMIC, /**<  Logarithmic curve */
  21:../../libDaisy//src/hid/parameter.h ****         CUBE,        /**< Cubic curve */
  22:../../libDaisy//src/hid/parameter.h ****         LAST,        /**< Final enum element. */
  23:../../libDaisy//src/hid/parameter.h ****     };
  24:../../libDaisy//src/hid/parameter.h ****     /** Constructor */
  25:../../libDaisy//src/hid/parameter.h ****     Parameter() {}
  26:../../libDaisy//src/hid/parameter.h ****     /** Destructor */
  27:../../libDaisy//src/hid/parameter.h ****     ~Parameter() {}
 105              		.loc 4 27 5 is_stmt 1 view -0
 106              		.cfi_startproc
ARM GAS  C:\Users\vngel\AppData\Local\Temp\ccf1b4Zx.s 			page 5


 107              		@ args = 0, pretend = 0, frame = 0
 108              		@ frame_needed = 0, uses_anonymous_args = 0
 109              		@ link register save eliminated.
 110              	.LBB188:
 111              	.LBI188:
 112              		.file 5 "../../libDaisy//src/hid/ctrl.h"
   1:../../libDaisy//src/hid/ctrl.h **** #pragma once
   2:../../libDaisy//src/hid/ctrl.h **** #ifndef DSY_KNOB_H
   3:../../libDaisy//src/hid/ctrl.h **** #define DSY_KNOB_H /**< & */
   4:../../libDaisy//src/hid/ctrl.h **** #include <stdint.h>
   5:../../libDaisy//src/hid/ctrl.h **** 
   6:../../libDaisy//src/hid/ctrl.h **** #ifdef __cplusplus
   7:../../libDaisy//src/hid/ctrl.h **** namespace daisy
   8:../../libDaisy//src/hid/ctrl.h **** {
   9:../../libDaisy//src/hid/ctrl.h **** /**
  10:../../libDaisy//src/hid/ctrl.h ****     @brief Hardware Interface for control inputs \n 
  11:../../libDaisy//src/hid/ctrl.h ****     Primarily designed for ADC input controls such as \n 
  12:../../libDaisy//src/hid/ctrl.h ****     potentiometers, and control voltage. \n 
  13:../../libDaisy//src/hid/ctrl.h ****     @author Stephen Hensley
  14:../../libDaisy//src/hid/ctrl.h ****     @date November 2019
  15:../../libDaisy//src/hid/ctrl.h ****     @ingroup controls
  16:../../libDaisy//src/hid/ctrl.h **** */
  17:../../libDaisy//src/hid/ctrl.h **** class AnalogControl
  18:../../libDaisy//src/hid/ctrl.h **** {
  19:../../libDaisy//src/hid/ctrl.h ****   public:
  20:../../libDaisy//src/hid/ctrl.h ****     /** Constructor */
  21:../../libDaisy//src/hid/ctrl.h ****     AnalogControl() {}
  22:../../libDaisy//src/hid/ctrl.h ****     /** destructor */
  23:../../libDaisy//src/hid/ctrl.h ****     ~AnalogControl() {}
 113              		.loc 5 23 5 view .LVU7
 114              		.loc 5 23 5 is_stmt 0 view .LVU8
 115              	.LBE188:
 116              		.loc 4 27 19 view .LVU9
 117 0000 7047     		bx	lr
 118              		.cfi_endproc
 119              	.LFE3915:
 121              		.weak	_ZN5daisy9ParameterD1Ev
 122              		.thumb_set _ZN5daisy9ParameterD1Ev,_ZN5daisy9ParameterD2Ev
 123 0002 00BF     		.section	.text._ZN5daisy9DaisySeedD2Ev,"axG",%progbits,_ZN5daisy9DaisySeedD5Ev,comdat
 124              		.align	1
 125              		.p2align 2,,3
 126              		.weak	_ZN5daisy9DaisySeedD2Ev
 127              		.syntax unified
 128              		.thumb
 129              		.thumb_func
 130              		.fpu fpv5-d16
 132              	_ZN5daisy9DaisySeedD2Ev:
 133              	.LVL4:
 134              	.LFB4783:
 135              		.file 6 "../../libDaisy//src/daisy_seed.h"
   1:../../libDaisy//src/daisy_seed.h **** #pragma once
   2:../../libDaisy//src/daisy_seed.h **** #ifndef DSY_SEED_H
   3:../../libDaisy//src/daisy_seed.h **** #define DSY_SEED_H
   4:../../libDaisy//src/daisy_seed.h **** 
   5:../../libDaisy//src/daisy_seed.h **** #include "daisy.h"
   6:../../libDaisy//src/daisy_seed.h **** 
   7:../../libDaisy//src/daisy_seed.h **** //Uncomment this out if you're still using the rev2 hardware
ARM GAS  C:\Users\vngel\AppData\Local\Temp\ccf1b4Zx.s 			page 6


   8:../../libDaisy//src/daisy_seed.h **** //#define SEED_REV2
   9:../../libDaisy//src/daisy_seed.h **** 
  10:../../libDaisy//src/daisy_seed.h **** namespace daisy
  11:../../libDaisy//src/daisy_seed.h **** {
  12:../../libDaisy//src/daisy_seed.h **** /**
  13:../../libDaisy//src/daisy_seed.h ****    @brief This is the higher-level interface for the Daisy board. \n 
  14:../../libDaisy//src/daisy_seed.h ****     All basic peripheral configuration/initialization is setup here. \n
  15:../../libDaisy//src/daisy_seed.h **** 
  16:../../libDaisy//src/daisy_seed.h ****    @ingroup boards
  17:../../libDaisy//src/daisy_seed.h **** */
  18:../../libDaisy//src/daisy_seed.h **** class DaisySeed
  19:../../libDaisy//src/daisy_seed.h **** {
  20:../../libDaisy//src/daisy_seed.h ****   public:
  21:../../libDaisy//src/daisy_seed.h ****     DaisySeed() {}
  22:../../libDaisy//src/daisy_seed.h ****     ~DaisySeed() {}
 136              		.loc 6 22 5 is_stmt 1 view -0
 137              		.cfi_startproc
 138              		@ args = 0, pretend = 0, frame = 0
 139              		@ frame_needed = 0, uses_anonymous_args = 0
 140              		@ link register save eliminated.
 141              	.LBB189:
 142              	.LBI189:
 143              		.file 7 "../../libDaisy//src/sys/system.h"
   1:../../libDaisy//src/sys/system.h **** #ifndef DSY_SYSTEM_H
   2:../../libDaisy//src/sys/system.h **** #define DSY_SYSTEM_H
   3:../../libDaisy//src/sys/system.h **** 
   4:../../libDaisy//src/sys/system.h **** #ifndef UNIT_TEST // for unit tests, a dummy implementation is provided below
   5:../../libDaisy//src/sys/system.h **** 
   6:../../libDaisy//src/sys/system.h **** #include <cstdint>
   7:../../libDaisy//src/sys/system.h **** #include "per/tim.h"
   8:../../libDaisy//src/sys/system.h **** 
   9:../../libDaisy//src/sys/system.h **** namespace daisy
  10:../../libDaisy//src/sys/system.h **** {
  11:../../libDaisy//src/sys/system.h **** /** A handle for interacting with the Core System. 
  12:../../libDaisy//src/sys/system.h ****  ** This includes the Clock tree, MPU, global DMA initialization,
  13:../../libDaisy//src/sys/system.h ****  ** cache handling, and any other necessary global initiailzation
  14:../../libDaisy//src/sys/system.h ****  **
  15:../../libDaisy//src/sys/system.h ****  ** @author shensley
  16:../../libDaisy//src/sys/system.h ****  ** @ingroup system
  17:../../libDaisy//src/sys/system.h ****  */
  18:../../libDaisy//src/sys/system.h **** class System
  19:../../libDaisy//src/sys/system.h **** {
  20:../../libDaisy//src/sys/system.h ****   public:
  21:../../libDaisy//src/sys/system.h ****     /** Contains settings for initializing the System */
  22:../../libDaisy//src/sys/system.h ****     struct Config
  23:../../libDaisy//src/sys/system.h ****     {
  24:../../libDaisy//src/sys/system.h ****         /** Specifies the system clock frequency that feeds APB/AHB clocks, etc. */
  25:../../libDaisy//src/sys/system.h ****         enum class SysClkFreq
  26:../../libDaisy//src/sys/system.h ****         {
  27:../../libDaisy//src/sys/system.h ****             FREQ_400MHZ,
  28:../../libDaisy//src/sys/system.h ****             FREQ_480MHZ,
  29:../../libDaisy//src/sys/system.h ****         };
  30:../../libDaisy//src/sys/system.h **** 
  31:../../libDaisy//src/sys/system.h ****         /** Method to call on the struct to set to defaults
  32:../../libDaisy//src/sys/system.h ****          ** CPU Freq set to 400MHz
  33:../../libDaisy//src/sys/system.h ****          ** Cache Enabled 
  34:../../libDaisy//src/sys/system.h ****          ** */
ARM GAS  C:\Users\vngel\AppData\Local\Temp\ccf1b4Zx.s 			page 7


  35:../../libDaisy//src/sys/system.h ****         void Defaults()
  36:../../libDaisy//src/sys/system.h ****         {
  37:../../libDaisy//src/sys/system.h ****             cpu_freq    = SysClkFreq::FREQ_400MHZ;
  38:../../libDaisy//src/sys/system.h ****             use_dcache  = true;
  39:../../libDaisy//src/sys/system.h ****             use_icache  = true;
  40:../../libDaisy//src/sys/system.h ****             skip_clocks = false;
  41:../../libDaisy//src/sys/system.h ****         }
  42:../../libDaisy//src/sys/system.h **** 
  43:../../libDaisy//src/sys/system.h ****         /** Method to call on the struct to set to boost mode:
  44:../../libDaisy//src/sys/system.h ****          ** CPU Freq set to 480MHz
  45:../../libDaisy//src/sys/system.h ****          ** Cache Enabled 
  46:../../libDaisy//src/sys/system.h ****          ** */
  47:../../libDaisy//src/sys/system.h ****         void Boost()
  48:../../libDaisy//src/sys/system.h ****         {
  49:../../libDaisy//src/sys/system.h ****             cpu_freq    = SysClkFreq::FREQ_480MHZ;
  50:../../libDaisy//src/sys/system.h ****             use_dcache  = true;
  51:../../libDaisy//src/sys/system.h ****             use_icache  = true;
  52:../../libDaisy//src/sys/system.h ****             skip_clocks = false;
  53:../../libDaisy//src/sys/system.h ****         }
  54:../../libDaisy//src/sys/system.h **** 
  55:../../libDaisy//src/sys/system.h ****         SysClkFreq cpu_freq;
  56:../../libDaisy//src/sys/system.h ****         bool       use_dcache;
  57:../../libDaisy//src/sys/system.h ****         bool       use_icache;
  58:../../libDaisy//src/sys/system.h ****         bool       skip_clocks;
  59:../../libDaisy//src/sys/system.h ****     };
  60:../../libDaisy//src/sys/system.h **** 
  61:../../libDaisy//src/sys/system.h ****     /** Describes the different regions of memory available to the Daisy
  62:../../libDaisy//src/sys/system.h ****      * 
  63:../../libDaisy//src/sys/system.h ****      */
  64:../../libDaisy//src/sys/system.h ****     enum MemoryRegion
  65:../../libDaisy//src/sys/system.h ****     {
  66:../../libDaisy//src/sys/system.h ****         INTERNAL_FLASH = 0,
  67:../../libDaisy//src/sys/system.h ****         ITCMRAM,
  68:../../libDaisy//src/sys/system.h ****         DTCMRAM,
  69:../../libDaisy//src/sys/system.h ****         SRAM_D1,
  70:../../libDaisy//src/sys/system.h ****         SRAM_D2,
  71:../../libDaisy//src/sys/system.h ****         SRAM_D3,
  72:../../libDaisy//src/sys/system.h ****         SDRAM,
  73:../../libDaisy//src/sys/system.h ****         QSPI,
  74:../../libDaisy//src/sys/system.h ****         INVALID_ADDRESS,
  75:../../libDaisy//src/sys/system.h ****     };
  76:../../libDaisy//src/sys/system.h **** 
  77:../../libDaisy//src/sys/system.h ****     System() {}
  78:../../libDaisy//src/sys/system.h ****     ~System() {}
 144              		.loc 7 78 5 view .LVU11
 145              		.loc 7 78 5 is_stmt 0 view .LVU12
 146              	.LBE189:
 147              	.LBB190:
 148              	.LBI190:
 149              		.file 8 "../../libDaisy//src/hid/usb.h"
   1:../../libDaisy//src/hid/usb.h **** #pragma once
   2:../../libDaisy//src/hid/usb.h **** #ifndef DSY_HID_USB_H
   3:../../libDaisy//src/hid/usb.h **** #define DSY_HID_USB_H
   4:../../libDaisy//src/hid/usb.h **** #include <stdint.h>
   5:../../libDaisy//src/hid/usb.h **** #include <stdlib.h>
   6:../../libDaisy//src/hid/usb.h **** 
   7:../../libDaisy//src/hid/usb.h **** namespace daisy
ARM GAS  C:\Users\vngel\AppData\Local\Temp\ccf1b4Zx.s 			page 8


   8:../../libDaisy//src/hid/usb.h **** /** @addtogroup human_interface
   9:../../libDaisy//src/hid/usb.h ****     @{
  10:../../libDaisy//src/hid/usb.h **** */
  11:../../libDaisy//src/hid/usb.h **** 
  12:../../libDaisy//src/hid/usb.h **** {
  13:../../libDaisy//src/hid/usb.h **** /** 
  14:../../libDaisy//src/hid/usb.h ****     @brief Interface for initializing and using the USB Peripherals on the daisy
  15:../../libDaisy//src/hid/usb.h ****     @author Stephen Hensley
  16:../../libDaisy//src/hid/usb.h ****     @date December 2019
  17:../../libDaisy//src/hid/usb.h **** */
  18:../../libDaisy//src/hid/usb.h **** class UsbHandle
  19:../../libDaisy//src/hid/usb.h **** {
  20:../../libDaisy//src/hid/usb.h ****   public:
  21:../../libDaisy//src/hid/usb.h ****     /** Return values for USBHandle Functions */
  22:../../libDaisy//src/hid/usb.h ****     enum class Result
  23:../../libDaisy//src/hid/usb.h ****     {
  24:../../libDaisy//src/hid/usb.h ****         OK,
  25:../../libDaisy//src/hid/usb.h ****         ERR,
  26:../../libDaisy//src/hid/usb.h ****     };
  27:../../libDaisy//src/hid/usb.h **** 
  28:../../libDaisy//src/hid/usb.h ****     /** Specified which of the two USB Peripherals to initialize. */
  29:../../libDaisy//src/hid/usb.h ****     enum UsbPeriph
  30:../../libDaisy//src/hid/usb.h ****     {
  31:../../libDaisy//src/hid/usb.h ****         FS_INTERNAL, /**< Internal pin */
  32:../../libDaisy//src/hid/usb.h ****         FS_EXTERNAL, /**< FS External D+ pin is Pin 38 (GPIO32). FS External D- pin is Pin 37 (GPIO
  33:../../libDaisy//src/hid/usb.h ****         FS_BOTH,     /**< Both */
  34:../../libDaisy//src/hid/usb.h ****     };
  35:../../libDaisy//src/hid/usb.h **** 
  36:../../libDaisy//src/hid/usb.h **** 
  37:../../libDaisy//src/hid/usb.h ****     /** Function called upon reception of a buffer */
  38:../../libDaisy//src/hid/usb.h ****     typedef void (*ReceiveCallback)(uint8_t* buff, uint32_t* len);
  39:../../libDaisy//src/hid/usb.h **** 
  40:../../libDaisy//src/hid/usb.h ****     UsbHandle() {}
  41:../../libDaisy//src/hid/usb.h **** 
  42:../../libDaisy//src/hid/usb.h ****     ~UsbHandle() {}
 150              		.loc 8 42 5 is_stmt 1 view .LVU13
 151              		.loc 8 42 5 is_stmt 0 view .LVU14
 152              	.LBE190:
 153              	.LBB191:
 154              	.LBI191:
 155              		.file 9 "../../libDaisy//src/per/adc.h"
   1:../../libDaisy//src/per/adc.h **** #pragma once
   2:../../libDaisy//src/per/adc.h **** #ifndef DSY_ADC_H
   3:../../libDaisy//src/per/adc.h **** #define DSY_ADC_H /**< Macro */
   4:../../libDaisy//src/per/adc.h **** #include <stdint.h>
   5:../../libDaisy//src/per/adc.h **** #include <stdlib.h>
   6:../../libDaisy//src/per/adc.h **** #include "daisy_core.h"
   7:../../libDaisy//src/per/adc.h **** #include "per/gpio.h"
   8:../../libDaisy//src/per/adc.h **** 
   9:../../libDaisy//src/per/adc.h **** #define DSY_ADC_MAX_CHANNELS 16 /**< Maximum number of ADC channels */
  10:../../libDaisy//src/per/adc.h **** 
  11:../../libDaisy//src/per/adc.h **** namespace daisy
  12:../../libDaisy//src/per/adc.h **** {
  13:../../libDaisy//src/per/adc.h **** /** @addtogroup per_analog
  14:../../libDaisy//src/per/adc.h ****     @{
  15:../../libDaisy//src/per/adc.h **** */
  16:../../libDaisy//src/per/adc.h **** 
ARM GAS  C:\Users\vngel\AppData\Local\Temp\ccf1b4Zx.s 			page 9


  17:../../libDaisy//src/per/adc.h **** /* While there may not be many configuration options here,
  18:../../libDaisy//src/per/adc.h **** using a struct like this allows us to add more configuration
  19:../../libDaisy//src/per/adc.h **** later without breaking existing functionality.
  20:../../libDaisy//src/per/adc.h **** */
  21:../../libDaisy//src/per/adc.h **** 
  22:../../libDaisy//src/per/adc.h **** /** @brief   Configuration Structure for an ADC Channel 
  23:../../libDaisy//src/per/adc.h ****  *  @details This can be used to configure a a single input, 
  24:../../libDaisy//src/per/adc.h ****  *           or a multiplexed input, allowing up to 8 inputs on 
  25:../../libDaisy//src/per/adc.h ****  *           one channel.
  26:../../libDaisy//src/per/adc.h ****  *  @note    Sharing data lines to multiple muxes _is_ possible, but
  27:../../libDaisy//src/per/adc.h ****  *           each channel sharing data lines must be set to the maximum
  28:../../libDaisy//src/per/adc.h ****  *           number of channels, even if some multiplexers have fewer
  29:../../libDaisy//src/per/adc.h ****  *           inputs connected.
  30:../../libDaisy//src/per/adc.h **** */
  31:../../libDaisy//src/per/adc.h **** struct AdcChannelConfig
  32:../../libDaisy//src/per/adc.h **** {
  33:../../libDaisy//src/per/adc.h ****     /** Which pin to use for multiplexing */
  34:../../libDaisy//src/per/adc.h ****     enum MuxPin
  35:../../libDaisy//src/per/adc.h ****     {
  36:../../libDaisy//src/per/adc.h ****         MUX_SEL_0,    /**< & */
  37:../../libDaisy//src/per/adc.h ****         MUX_SEL_1,    /**< & */
  38:../../libDaisy//src/per/adc.h ****         MUX_SEL_2,    /**< & */
  39:../../libDaisy//src/per/adc.h ****         MUX_SEL_LAST, /**< & */
  40:../../libDaisy//src/per/adc.h ****     };
  41:../../libDaisy//src/per/adc.h **** 
  42:../../libDaisy//src/per/adc.h ****     /** Initializes a single ADC pin as an ADC. 
  43:../../libDaisy//src/per/adc.h ****     \param pin Pin to init.
  44:../../libDaisy//src/per/adc.h ****      */
  45:../../libDaisy//src/per/adc.h ****     void InitSingle(dsy_gpio_pin pin);
  46:../../libDaisy//src/per/adc.h **** 
  47:../../libDaisy//src/per/adc.h ****     /** 
  48:../../libDaisy//src/per/adc.h ****     Initializes a single ADC pin as a Multiplexed ADC.
  49:../../libDaisy//src/per/adc.h ****     Requires a CD405X Multiplexer connected to the pin.
  50:../../libDaisy//src/per/adc.h ****     You only need to supply the mux pins that are required,
  51:../../libDaisy//src/per/adc.h ****     e.g. a 4052 mux would only require mux_0 and mux_1.
  52:../../libDaisy//src/per/adc.h ****     Internal Callbacks handle the pin addressing.
  53:../../libDaisy//src/per/adc.h ****     \param mux_channels must be 1-8
  54:../../libDaisy//src/per/adc.h ****     \param mux_0 First mux pin
  55:../../libDaisy//src/per/adc.h ****     \param mux_1 Second mux pin
  56:../../libDaisy//src/per/adc.h ****     \param mux_2 Third mux pin
  57:../../libDaisy//src/per/adc.h ****     \param adc_pin &
  58:../../libDaisy//src/per/adc.h ****     */
  59:../../libDaisy//src/per/adc.h ****     void InitMux(dsy_gpio_pin adc_pin,
  60:../../libDaisy//src/per/adc.h ****                  size_t       mux_channels,
  61:../../libDaisy//src/per/adc.h ****                  dsy_gpio_pin mux_0,
  62:../../libDaisy//src/per/adc.h ****                  dsy_gpio_pin mux_1 = {DSY_GPIOX, 0},
  63:../../libDaisy//src/per/adc.h ****                  dsy_gpio_pin mux_2 = {DSY_GPIOX, 0});
  64:../../libDaisy//src/per/adc.h **** 
  65:../../libDaisy//src/per/adc.h ****     dsy_gpio pin_;                   /**< & */
  66:../../libDaisy//src/per/adc.h ****     dsy_gpio mux_pin_[MUX_SEL_LAST]; /**< & */
  67:../../libDaisy//src/per/adc.h ****     uint8_t  mux_channels_;          /**< & */
  68:../../libDaisy//src/per/adc.h **** };
  69:../../libDaisy//src/per/adc.h **** 
  70:../../libDaisy//src/per/adc.h **** /**
  71:../../libDaisy//src/per/adc.h ****    @brief Handler for analog to digital conversion
  72:../../libDaisy//src/per/adc.h **** */
  73:../../libDaisy//src/per/adc.h **** class AdcHandle
ARM GAS  C:\Users\vngel\AppData\Local\Temp\ccf1b4Zx.s 			page 10


  74:../../libDaisy//src/per/adc.h **** {
  75:../../libDaisy//src/per/adc.h ****   public:
  76:../../libDaisy//src/per/adc.h ****     /** Supported oversampling amounts */
  77:../../libDaisy//src/per/adc.h ****     enum OverSampling
  78:../../libDaisy//src/per/adc.h ****     {
  79:../../libDaisy//src/per/adc.h ****         OVS_NONE, /**< & */
  80:../../libDaisy//src/per/adc.h ****         OVS_4,    /**< & */
  81:../../libDaisy//src/per/adc.h ****         OVS_8,    /**< & */
  82:../../libDaisy//src/per/adc.h ****         OVS_16,   /**< & */
  83:../../libDaisy//src/per/adc.h ****         OVS_32,   /**< & */
  84:../../libDaisy//src/per/adc.h ****         OVS_64,   /**< & */
  85:../../libDaisy//src/per/adc.h ****         OVS_128,  /**< & */
  86:../../libDaisy//src/per/adc.h ****         OVS_256,  /**< & */
  87:../../libDaisy//src/per/adc.h ****         OVS_512,  /**< & */
  88:../../libDaisy//src/per/adc.h ****         OVS_1024, /**< & */
  89:../../libDaisy//src/per/adc.h ****         OVS_LAST, /**< & */
  90:../../libDaisy//src/per/adc.h ****     };
  91:../../libDaisy//src/per/adc.h **** 
  92:../../libDaisy//src/per/adc.h ****     AdcHandle() {}
  93:../../libDaisy//src/per/adc.h ****     ~AdcHandle() {}
 156              		.loc 9 93 5 is_stmt 1 view .LVU15
 157              		.loc 9 93 5 is_stmt 0 view .LVU16
 158              	.LBE191:
 159              	.LBB192:
 160              	.LBI192:
 161              		.file 10 "../../libDaisy//src/hid/audio.h"
   1:../../libDaisy//src/hid/audio.h **** #ifndef DSY_AUDIO_H
   2:../../libDaisy//src/hid/audio.h **** #define DSY_AUDIO_H /**< & */
   3:../../libDaisy//src/hid/audio.h **** 
   4:../../libDaisy//src/hid/audio.h **** #include "per/sai.h"
   5:../../libDaisy//src/hid/audio.h **** 
   6:../../libDaisy//src/hid/audio.h **** namespace daisy
   7:../../libDaisy//src/hid/audio.h **** {
   8:../../libDaisy//src/hid/audio.h **** /** @brief Audio Engine Handle
   9:../../libDaisy//src/hid/audio.h ****  *  @ingroup audio 
  10:../../libDaisy//src/hid/audio.h ****  *  @details This class allows for higher level access to an audio engine.
  11:../../libDaisy//src/hid/audio.h ****  *           If you're using a SOM like the DaisySeed or DaisyPatchSM (or any 
  12:../../libDaisy//src/hid/audio.h ****  *            board that includes one of those objects) then the intialization
  13:../../libDaisy//src/hid/audio.h ****  *            is already taken  care of.
  14:../../libDaisy//src/hid/audio.h ****  *           If you're setting up your own custom hardware, or need to make changes
  15:../../libDaisy//src/hid/audio.h ****  *           you will have to take the following steps:
  16:../../libDaisy//src/hid/audio.h ****  *             1. Create and Initialize an SaiHandle or two depending on your requirements
  17:../../libDaisy//src/hid/audio.h ****  *             2. Initialize the Audio Handle with the desired settings and the Initialized SaiHand
  18:../../libDaisy//src/hid/audio.h ****  *             3. If the connected codec requires special configuration or initialization, do so
  19:../../libDaisy//src/hid/audio.h ****  *             4. Write a callback method using either the AudioCallback or the InterleavingAudioCa
  20:../../libDaisy//src/hid/audio.h ****  *             5. Start the Audio using one of the StartAudio function
  21:../../libDaisy//src/hid/audio.h ****  */
  22:../../libDaisy//src/hid/audio.h **** class AudioHandle
  23:../../libDaisy//src/hid/audio.h **** {
  24:../../libDaisy//src/hid/audio.h ****   public:
  25:../../libDaisy//src/hid/audio.h ****     /** Manually configurable details about the Audio Engine */
  26:../../libDaisy//src/hid/audio.h ****     /** TODO: Figure out how to get samplerate in here. */
  27:../../libDaisy//src/hid/audio.h ****     struct Config
  28:../../libDaisy//src/hid/audio.h ****     {
  29:../../libDaisy//src/hid/audio.h ****         /** number of samples to process per callback */
  30:../../libDaisy//src/hid/audio.h ****         size_t blocksize;
  31:../../libDaisy//src/hid/audio.h **** 
ARM GAS  C:\Users\vngel\AppData\Local\Temp\ccf1b4Zx.s 			page 11


  32:../../libDaisy//src/hid/audio.h ****         /**< Sample rate of audio */
  33:../../libDaisy//src/hid/audio.h ****         SaiHandle::Config::SampleRate samplerate;
  34:../../libDaisy//src/hid/audio.h **** 
  35:../../libDaisy//src/hid/audio.h ****         /** factor for adjustment before and after callback for hardware that may have extra headro
  36:../../libDaisy//src/hid/audio.h ****         float postgain;
  37:../../libDaisy//src/hid/audio.h **** 
  38:../../libDaisy//src/hid/audio.h ****         /** factor for additional one-sided compensation to audio path for hardware that may
  39:../../libDaisy//src/hid/audio.h ****          *  have unequal input/output ranges
  40:../../libDaisy//src/hid/audio.h ****          */
  41:../../libDaisy//src/hid/audio.h ****         float output_compensation;
  42:../../libDaisy//src/hid/audio.h **** 
  43:../../libDaisy//src/hid/audio.h ****         /** Sets default values for config struct */
  44:../../libDaisy//src/hid/audio.h ****         Config()
  45:../../libDaisy//src/hid/audio.h ****         : blocksize(48),
  46:../../libDaisy//src/hid/audio.h ****           samplerate(SaiHandle::Config::SampleRate::SAI_48KHZ),
  47:../../libDaisy//src/hid/audio.h ****           postgain(1.f),
  48:../../libDaisy//src/hid/audio.h ****           output_compensation(1.f)
  49:../../libDaisy//src/hid/audio.h ****         {
  50:../../libDaisy//src/hid/audio.h ****         }
  51:../../libDaisy//src/hid/audio.h ****     };
  52:../../libDaisy//src/hid/audio.h **** 
  53:../../libDaisy//src/hid/audio.h ****     enum class Result
  54:../../libDaisy//src/hid/audio.h ****     {
  55:../../libDaisy//src/hid/audio.h ****         OK,
  56:../../libDaisy//src/hid/audio.h ****         ERR,
  57:../../libDaisy//src/hid/audio.h ****     };
  58:../../libDaisy//src/hid/audio.h **** 
  59:../../libDaisy//src/hid/audio.h ****     /** Non-Interleaving input buffer
  60:../../libDaisy//src/hid/audio.h ****      * Buffer arranged by float[chn][sample] 
  61:../../libDaisy//src/hid/audio.h ****      * const so that the user can't modify the input
  62:../../libDaisy//src/hid/audio.h ****      */
  63:../../libDaisy//src/hid/audio.h ****     typedef const float* const* InputBuffer;
  64:../../libDaisy//src/hid/audio.h **** 
  65:../../libDaisy//src/hid/audio.h ****     /** Non-Interleaving output buffer
  66:../../libDaisy//src/hid/audio.h ****      * Arranged by float[chn][sample] 
  67:../../libDaisy//src/hid/audio.h ****      */
  68:../../libDaisy//src/hid/audio.h ****     typedef float** OutputBuffer;
  69:../../libDaisy//src/hid/audio.h **** 
  70:../../libDaisy//src/hid/audio.h ****     /** Type for a Non-Interleaving audio callback 
  71:../../libDaisy//src/hid/audio.h ****      * Non-Interleaving audio callbacks in daisy will be of this type
  72:../../libDaisy//src/hid/audio.h ****      */
  73:../../libDaisy//src/hid/audio.h ****     typedef void (*AudioCallback)(InputBuffer  in,
  74:../../libDaisy//src/hid/audio.h ****                                   OutputBuffer out,
  75:../../libDaisy//src/hid/audio.h ****                                   size_t       size);
  76:../../libDaisy//src/hid/audio.h **** 
  77:../../libDaisy//src/hid/audio.h ****     /** Interleaving Input buffer
  78:../../libDaisy//src/hid/audio.h ****      ** audio is prepared as { L0, R0, L1, R1, . . . LN, RN }]
  79:../../libDaisy//src/hid/audio.h ****      ** this is const, as the user shouldn't modify it
  80:../../libDaisy//src/hid/audio.h ****     */
  81:../../libDaisy//src/hid/audio.h ****     typedef const float* InterleavingInputBuffer;
  82:../../libDaisy//src/hid/audio.h **** 
  83:../../libDaisy//src/hid/audio.h ****     /** Interleaving Output buffer 
  84:../../libDaisy//src/hid/audio.h ****      ** audio is prepared as { L0, R0, L1, R1, . . . LN, RN }
  85:../../libDaisy//src/hid/audio.h ****     */
  86:../../libDaisy//src/hid/audio.h ****     typedef float* InterleavingOutputBuffer;
  87:../../libDaisy//src/hid/audio.h **** 
  88:../../libDaisy//src/hid/audio.h ****     /** Interleaving Audio Callback 
ARM GAS  C:\Users\vngel\AppData\Local\Temp\ccf1b4Zx.s 			page 12


  89:../../libDaisy//src/hid/audio.h ****      * Interleaving audio callbacks in daisy must be of this type
  90:../../libDaisy//src/hid/audio.h ****      */
  91:../../libDaisy//src/hid/audio.h ****     typedef void (*InterleavingAudioCallback)(InterleavingInputBuffer  in,
  92:../../libDaisy//src/hid/audio.h ****                                               InterleavingOutputBuffer out,
  93:../../libDaisy//src/hid/audio.h ****                                               size_t                   size);
  94:../../libDaisy//src/hid/audio.h **** 
  95:../../libDaisy//src/hid/audio.h ****     AudioHandle() : pimpl_(nullptr) {}
  96:../../libDaisy//src/hid/audio.h ****     ~AudioHandle() {}
 162              		.loc 10 96 5 is_stmt 1 view .LVU17
 163              		.loc 10 96 5 is_stmt 0 view .LVU18
 164              	.LBE192:
 165              		.loc 6 22 19 view .LVU19
 166 0000 7047     		bx	lr
 167              		.cfi_endproc
 168              	.LFE4783:
 170              		.weak	_ZN5daisy9DaisySeedD1Ev
 171              		.thumb_set _ZN5daisy9DaisySeedD1Ev,_ZN5daisy9DaisySeedD2Ev
 172 0002 00BF     		.section	.text.__tcf_0,"ax",%progbits
 173              		.align	1
 174              		.p2align 2,,3
 175              		.syntax unified
 176              		.thumb
 177              		.thumb_func
 178              		.fpu fpv5-d16
 180              	__tcf_0:
 181              	.LFB5374:
 182              		.file 11 "MyNewProject.cpp"
   1:MyNewProject.cpp **** #include "Delay.h"
   2:MyNewProject.cpp **** #include "ToneFilter.h"
   3:MyNewProject.cpp **** #include "TapTempo.h"
   4:MyNewProject.cpp **** 
   5:MyNewProject.cpp **** using namespace daisysp;
   6:MyNewProject.cpp **** using namespace daisy;
   7:MyNewProject.cpp **** using namespace daisy::seed;
   8:MyNewProject.cpp **** 
   9:MyNewProject.cpp **** DelayLine<float, MAX_DELAY> DSY_SDRAM_BSS delayMems[4];
 183              		.loc 11 9 43 is_stmt 1 view -0
 184              		.cfi_startproc
 185              		@ args = 0, pretend = 0, frame = 0
 186              		@ frame_needed = 0, uses_anonymous_args = 0
 187              		@ link register save eliminated.
 188              		.loc 11 9 43 is_stmt 0 view .LVU21
 189 0000 7047     		bx	lr
 190              		.cfi_endproc
 191              	.LFE5374:
 193 0002 00BF     		.section	.text._ZN10ToneFilterD2Ev,"axG",%progbits,_ZN10ToneFilterD5Ev,comdat
 194              		.align	1
 195              		.p2align 2,,3
 196              		.weak	_ZN10ToneFilterD2Ev
 197              		.syntax unified
 198              		.thumb
 199              		.thumb_func
 200              		.fpu fpv5-d16
 202              	_ZN10ToneFilterD2Ev:
 203              	.LVL5:
 204              	.LFB5376:
 205              		.file 12 "ToneFilter.h"
ARM GAS  C:\Users\vngel\AppData\Local\Temp\ccf1b4Zx.s 			page 13


   1:ToneFilter.h  **** #pragma once
   2:ToneFilter.h  **** #include "daisysp.h"
   3:ToneFilter.h  **** #include "daisy_seed.h"
   4:ToneFilter.h  **** 
   5:ToneFilter.h  **** using namespace daisysp;
   6:ToneFilter.h  **** using namespace daisy;
   7:ToneFilter.h  **** using namespace daisy::seed;
   8:ToneFilter.h  **** 
   9:ToneFilter.h  **** class ToneFilter
 206              		.loc 12 9 7 is_stmt 1 view -0
 207              		.cfi_startproc
 208              		@ args = 0, pretend = 0, frame = 0
 209              		@ frame_needed = 0, uses_anonymous_args = 0
 210              		@ link register save eliminated.
 211              	.LBB194:
 212              	.LBI194:
 213              		.file 13 "../../DaisySP//Source/Filters/atone.h"
   1:../../DaisySP//Source/Filters/atone.h **** #pragma once
   2:../../DaisySP//Source/Filters/atone.h **** #ifndef DSY_ATONE_H
   3:../../DaisySP//Source/Filters/atone.h **** #define DSY_ATONE_H
   4:../../DaisySP//Source/Filters/atone.h **** 
   5:../../DaisySP//Source/Filters/atone.h **** #include <stdint.h>
   6:../../DaisySP//Source/Filters/atone.h **** #ifdef __cplusplus
   7:../../DaisySP//Source/Filters/atone.h **** 
   8:../../DaisySP//Source/Filters/atone.h **** namespace daisysp
   9:../../DaisySP//Source/Filters/atone.h **** {
  10:../../DaisySP//Source/Filters/atone.h **** /** A first-order recursive high-pass filter with variable frequency response.
  11:../../DaisySP//Source/Filters/atone.h ****      Original Author(s): Barry Vercoe, John FFitch, Gabriel Maldonado
  12:../../DaisySP//Source/Filters/atone.h **** 
  13:../../DaisySP//Source/Filters/atone.h ****      Year: 1991
  14:../../DaisySP//Source/Filters/atone.h **** 
  15:../../DaisySP//Source/Filters/atone.h ****      Original Location: Csound -- OOps/ugens5.c
  16:../../DaisySP//Source/Filters/atone.h **** 
  17:../../DaisySP//Source/Filters/atone.h ****      Ported from soundpipe by Ben Sergentanis, May 2020
  18:../../DaisySP//Source/Filters/atone.h ****     */
  19:../../DaisySP//Source/Filters/atone.h **** class ATone
  20:../../DaisySP//Source/Filters/atone.h **** {
  21:../../DaisySP//Source/Filters/atone.h ****   public:
  22:../../DaisySP//Source/Filters/atone.h ****     ATone() {}
  23:../../DaisySP//Source/Filters/atone.h ****     ~ATone() {}
 214              		.loc 13 23 5 view .LVU23
 215              		.loc 13 23 5 is_stmt 0 view .LVU24
 216              	.LBE194:
 217              	.LBB195:
 218              	.LBI195:
 219              		.file 14 "../../DaisySP//Source/Filters/tone.h"
   1:../../DaisySP//Source/Filters/tone.h **** #pragma once
   2:../../DaisySP//Source/Filters/tone.h **** #ifndef DSY_TONE_H
   3:../../DaisySP//Source/Filters/tone.h **** #define DSY_TONE_H
   4:../../DaisySP//Source/Filters/tone.h **** 
   5:../../DaisySP//Source/Filters/tone.h **** #include <stdint.h>
   6:../../DaisySP//Source/Filters/tone.h **** #ifdef __cplusplus
   7:../../DaisySP//Source/Filters/tone.h **** 
   8:../../DaisySP//Source/Filters/tone.h **** namespace daisysp
   9:../../DaisySP//Source/Filters/tone.h **** {
  10:../../DaisySP//Source/Filters/tone.h **** /** A first-order recursive low-pass filter with variable frequency response.
  11:../../DaisySP//Source/Filters/tone.h **** */
ARM GAS  C:\Users\vngel\AppData\Local\Temp\ccf1b4Zx.s 			page 14


  12:../../DaisySP//Source/Filters/tone.h **** class Tone
  13:../../DaisySP//Source/Filters/tone.h **** {
  14:../../DaisySP//Source/Filters/tone.h ****   public:
  15:../../DaisySP//Source/Filters/tone.h ****     Tone() {}
  16:../../DaisySP//Source/Filters/tone.h ****     ~Tone() {}
 220              		.loc 14 16 5 is_stmt 1 view .LVU25
 221              		.loc 14 16 5 is_stmt 0 view .LVU26
 222              	.LBE195:
 223              		.loc 12 9 7 view .LVU27
 224 0000 7047     		bx	lr
 225              		.cfi_endproc
 226              	.LFE5376:
 228              		.weak	_ZN10ToneFilterD1Ev
 229              		.thumb_set _ZN10ToneFilterD1Ev,_ZN10ToneFilterD2Ev
 230 0002 00BF     		.section	.text.__tcf_1,"ax",%progbits
 231              		.align	1
 232              		.p2align 2,,3
 233              		.syntax unified
 234              		.thumb
 235              		.thumb_func
 236              		.fpu fpv5-d16
 238              	__tcf_1:
 239              	.LFB5384:
 240              		.cfi_startproc
 241              		@ args = 0, pretend = 0, frame = 0
 242              		@ frame_needed = 0, uses_anonymous_args = 0
 243              		@ link register save eliminated.
 244 0000 7047     		bx	lr
 245              		.cfi_endproc
 246              	.LFE5384:
 248 0002 00BF     		.section	.text._Z10CheckTempov,"ax",%progbits
 249              		.align	1
 250              		.p2align 2,,3
 251              		.global	_Z10CheckTempov
 252              		.syntax unified
 253              		.thumb
 254              		.thumb_func
 255              		.fpu fpv5-d16
 257              	_Z10CheckTempov:
 258              	.LFB4802:
  10:MyNewProject.cpp **** 
  11:MyNewProject.cpp **** Delayy delay;
  12:MyNewProject.cpp **** ToneFilter tone(48000.f);
  13:MyNewProject.cpp **** static Balance balance;
  14:MyNewProject.cpp **** TapTempo tapTempo;
  15:MyNewProject.cpp **** 
  16:MyNewProject.cpp **** Switch ON_BUTTON;                 // The on/off button
  17:MyNewProject.cpp **** Switch TEMPO_BUTTON;              // The tap tempo button
  18:MyNewProject.cpp **** Switch headSwitches[4];           // One switch for each head
  19:MyNewProject.cpp **** static DaisySeed hw;              // The daisy seed harfware
  20:MyNewProject.cpp **** static CrossFade cfade;           // Used to blend the wet/dry and maintain a constant mixed volume
  21:MyNewProject.cpp **** 
  22:MyNewProject.cpp **** 
  23:MyNewProject.cpp **** float MAX_FEEDBACK = 1.1f;        // Max value of feedback knob, maxFeedback=1 -> forever repeats b
  24:MyNewProject.cpp **** float drywet_ratio = 0.5f;        // Drywet_ratio=0.0 is effect off
  25:MyNewProject.cpp **** const float MAX_DELAY_SEC = 3.0f; // Max amount of seconds allowed to get 20 bpm
  26:MyNewProject.cpp **** const float MIN_DELAY_SEC = 0.6f; // Min amount of seconds allowed to get 100 bpm
ARM GAS  C:\Users\vngel\AppData\Local\Temp\ccf1b4Zx.s 			page 15


  27:MyNewProject.cpp **** bool onButtonWasPressed = false;  // Flag for turning on/off delays, replace with onButton.risingEd
  28:MyNewProject.cpp **** 
  29:MyNewProject.cpp **** Parameter feedbackKnob;
  30:MyNewProject.cpp **** Parameter toneKnob;
  31:MyNewProject.cpp **** Parameter timeKnob;
  32:MyNewProject.cpp **** 
  33:MyNewProject.cpp **** // Sets the delays when there is a change
  34:MyNewProject.cpp **** void CheckTempo();
  35:MyNewProject.cpp **** // Initialize buttons for the delay heads to the pins we want
  36:MyNewProject.cpp **** void InitHeadButtons();
  37:MyNewProject.cpp **** // Processes the controls and updates values that changed
  38:MyNewProject.cpp **** void ProcessControls();
  39:MyNewProject.cpp **** // Will point the delay heads in class to the global delay lines
  40:MyNewProject.cpp **** void initDelay();
  41:MyNewProject.cpp **** 
  42:MyNewProject.cpp **** static void AudioCallback(AudioHandle::InputBuffer  in,
  43:MyNewProject.cpp ****                           AudioHandle::OutputBuffer out,
  44:MyNewProject.cpp ****                           size_t                    size)
  45:MyNewProject.cpp **** {
  46:MyNewProject.cpp ****     for(size_t i = 0; i < size; i++)
  47:MyNewProject.cpp ****     {
  48:MyNewProject.cpp ****         // 
  49:MyNewProject.cpp ****         ProcessControls();
  50:MyNewProject.cpp ****         // Check for tempo change
  51:MyNewProject.cpp ****         CheckTempo();
  52:MyNewProject.cpp ****         // Set delays with new bpm
  53:MyNewProject.cpp ****         //delay.setBPM(tapTempo.getBPM());       
  54:MyNewProject.cpp **** 
  55:MyNewProject.cpp **** 
  56:MyNewProject.cpp ****         ON_BUTTON.Debounce();
  57:MyNewProject.cpp ****         // Check if the button is pressed and was not previously pressed
  58:MyNewProject.cpp ****         if(ON_BUTTON.Pressed() && !onButtonWasPressed)
  59:MyNewProject.cpp ****         {
  60:MyNewProject.cpp ****             onButtonWasPressed = true; // set the flag to indicate that the button was pressed
  61:MyNewProject.cpp ****             delay.stopAll();
  62:MyNewProject.cpp ****         }
  63:MyNewProject.cpp **** 
  64:MyNewProject.cpp ****         // Check if the button was released
  65:MyNewProject.cpp ****         if(!ON_BUTTON.Pressed() && onButtonWasPressed)
  66:MyNewProject.cpp ****         {
  67:MyNewProject.cpp ****             onButtonWasPressed = false; // reset the flag
  68:MyNewProject.cpp ****         }
  69:MyNewProject.cpp **** 
  70:MyNewProject.cpp ****         float final_mix = 0;         // The final float value that will be outputted
  71:MyNewProject.cpp **** 	    float all_delay_signals = 0; // Summation of all delay signals
  72:MyNewProject.cpp ****         float nonConstInput;         // Will store the a copy of input float value at in[channel][i
  73:MyNewProject.cpp ****                                      // Needed because cfade.SetPos requieres non-const  
  74:MyNewProject.cpp **** 
  75:MyNewProject.cpp ****     
  76:MyNewProject.cpp **** 
  77:MyNewProject.cpp ****         all_delay_signals = delay.process(in[0][i]);
  78:MyNewProject.cpp ****         float preFilter = all_delay_signals;
  79:MyNewProject.cpp ****         all_delay_signals = tone.process(all_delay_signals);
  80:MyNewProject.cpp ****         all_delay_signals = balance.Process(all_delay_signals,preFilter*tone.getFactor());
  81:MyNewProject.cpp **** 
  82:MyNewProject.cpp **** 
  83:MyNewProject.cpp **** 
ARM GAS  C:\Users\vngel\AppData\Local\Temp\ccf1b4Zx.s 			page 16


  84:MyNewProject.cpp **** 
  85:MyNewProject.cpp ****         nonConstInput = in[0][i];
  86:MyNewProject.cpp **** 
  87:MyNewProject.cpp **** 		// Use a crossfade object to maintain a constant power while mixing the delayed/raw audio mix
  88:MyNewProject.cpp **** 		cfade.SetPos(drywet_ratio);
  89:MyNewProject.cpp **** 		final_mix = cfade.Process(nonConstInput, all_delay_signals);
  90:MyNewProject.cpp **** 		out[0][i]  = out [1][i] = final_mix;//filter; // this sends 'final_mix' to the left and right out
  91:MyNewProject.cpp ****     }
  92:MyNewProject.cpp **** }
  93:MyNewProject.cpp **** 
  94:MyNewProject.cpp **** int main(void)
  95:MyNewProject.cpp **** {
  96:MyNewProject.cpp ****     // Initialize seed hardware.
  97:MyNewProject.cpp ****     hw.Init();
  98:MyNewProject.cpp **** 
  99:MyNewProject.cpp ****     // Setting up serial and printing
 100:MyNewProject.cpp ****     hw.StartLog();
 101:MyNewProject.cpp **** 
 102:MyNewProject.cpp ****     // Initialize the button to D28, Pin 35 to be the on/off button
 103:MyNewProject.cpp ****     ON_BUTTON.Init(hw.GetPin(28),1000);
 104:MyNewProject.cpp ****     // Init tap temp Button to D25, pin 32
 105:MyNewProject.cpp ****     TEMPO_BUTTON.Init(hw.GetPin(25),1000);
 106:MyNewProject.cpp ****     // Init the head on/off buttons
 107:MyNewProject.cpp ****     InitHeadButtons();
 108:MyNewProject.cpp **** 
 109:MyNewProject.cpp **** 
 110:MyNewProject.cpp ****     //set blocksize.
 111:MyNewProject.cpp ****     hw.SetAudioBlockSize(4);
 112:MyNewProject.cpp ****     hw.SetAudioSampleRate(SaiHandle::Config::SampleRate::SAI_48KHZ);
 113:MyNewProject.cpp **** 
 114:MyNewProject.cpp ****     // Set params for CrossFade object
 115:MyNewProject.cpp ****     cfade.Init();
 116:MyNewProject.cpp ****     // Sets crossfade to maintain constant power, which will maintain a constant volume as we go fr
 117:MyNewProject.cpp ****     cfade.SetCurve(CROSSFADE_CPOW);
 118:MyNewProject.cpp **** 
 119:MyNewProject.cpp ****     // Start callback
 120:MyNewProject.cpp ****     hw.StartAudio(AudioCallback);
 121:MyNewProject.cpp **** 
 122:MyNewProject.cpp **** 
 123:MyNewProject.cpp ****     //KNOB INIT************************************************************************
 124:MyNewProject.cpp ****     AdcChannelConfig fbkConfig;
 125:MyNewProject.cpp ****     fbkConfig.InitSingle(A0);
 126:MyNewProject.cpp ****     AdcChannelConfig toneConfig;
 127:MyNewProject.cpp ****     toneConfig.InitSingle(A1);
 128:MyNewProject.cpp ****     AdcChannelConfig timeConfig;
 129:MyNewProject.cpp ****     timeConfig.InitSingle(A2); 
 130:MyNewProject.cpp **** 
 131:MyNewProject.cpp ****     // If adding more knobs, create config above, and update  array and # of configs
 132:MyNewProject.cpp ****     AdcChannelConfig configs [3] = {fbkConfig,toneConfig,timeConfig};
 133:MyNewProject.cpp ****     hw.adc.Init(configs,3);
 134:MyNewProject.cpp **** 
 135:MyNewProject.cpp ****     AnalogControl fbk;
 136:MyNewProject.cpp ****     fbk.Init(hw.adc.GetPtr(0),hw.AudioSampleRate());
 137:MyNewProject.cpp ****     feedbackKnob.Init(fbk,0.00,MAX_FEEDBACK,Parameter::LINEAR);
 138:MyNewProject.cpp **** 
 139:MyNewProject.cpp ****     AnalogControl tne;
 140:MyNewProject.cpp ****     tne.Init(hw.adc.GetPtr(1),hw.AudioSampleRate());
ARM GAS  C:\Users\vngel\AppData\Local\Temp\ccf1b4Zx.s 			page 17


 141:MyNewProject.cpp ****     toneKnob.Init(tne,-1.f,1.f,Parameter::LINEAR);
 142:MyNewProject.cpp **** 
 143:MyNewProject.cpp ****     AnalogControl time;
 144:MyNewProject.cpp ****     time.Init(hw.adc.GetPtr(2),hw.AudioSampleRate());
 145:MyNewProject.cpp ****     timeKnob.Init(time,30.f,240.f,Parameter::LINEAR);
 146:MyNewProject.cpp **** 
 147:MyNewProject.cpp **** 
 148:MyNewProject.cpp **** 
 149:MyNewProject.cpp ****     //*******************************************************************************
 150:MyNewProject.cpp **** 
 151:MyNewProject.cpp **** 
 152:MyNewProject.cpp ****     balance.Init(48000);
 153:MyNewProject.cpp ****     hw.adc.Start();
 154:MyNewProject.cpp ****     
 155:MyNewProject.cpp **** 
 156:MyNewProject.cpp ****     // Init the delay object with the globally scoped delayMems array
 157:MyNewProject.cpp ****     initDelay();
 158:MyNewProject.cpp ****   
 159:MyNewProject.cpp **** 
 160:MyNewProject.cpp ****     while(1) 
 161:MyNewProject.cpp ****     {
 162:MyNewProject.cpp ****         //Not sure why the delay, taken from the Daisy petal MultiDelay.cpp example
 163:MyNewProject.cpp ****         System::Delay(6);
 164:MyNewProject.cpp **** 
 165:MyNewProject.cpp ****     }
 166:MyNewProject.cpp **** }
 167:MyNewProject.cpp **** 
 168:MyNewProject.cpp **** void CheckTempo()
 169:MyNewProject.cpp **** {
 259              		.loc 11 169 1 is_stmt 1 view -0
 260              		.cfi_startproc
 261              		@ args = 0, pretend = 0, frame = 0
 262              		@ frame_needed = 0, uses_anonymous_args = 0
 170:MyNewProject.cpp ****     
 171:MyNewProject.cpp ****     bool tap = false;
 263              		.loc 11 171 5 view .LVU29
 264              	.LVL6:
 172:MyNewProject.cpp ****     TEMPO_BUTTON.Debounce();
 265              		.loc 11 172 5 view .LVU30
 169:MyNewProject.cpp ****     
 266              		.loc 11 169 1 is_stmt 0 view .LVU31
 267 0000 10B5     		push	{r4, lr}
 268              		.cfi_def_cfa_offset 8
 269              		.cfi_offset 4, -8
 270              		.cfi_offset 14, -4
 271              		.loc 11 172 26 view .LVU32
 272 0002 084C     		ldr	r4, .L16
 273 0004 2046     		mov	r0, r4
 274 0006 FFF7FEFF 		bl	_ZN5daisy6Switch8DebounceEv
 275              	.LVL7:
 173:MyNewProject.cpp ****     if(TEMPO_BUTTON.RisingEdge())
 276              		.loc 11 173 5 is_stmt 1 view .LVU33
 277              	.LBB198:
 278              	.LBI198:
  43:../../libDaisy//src/hid/switch.h **** 
  44:../../libDaisy//src/hid/switch.h ****     /** 
  45:../../libDaisy//src/hid/switch.h ****     Initializes the switch object with a given port/pin combo.
ARM GAS  C:\Users\vngel\AppData\Local\Temp\ccf1b4Zx.s 			page 18


  46:../../libDaisy//src/hid/switch.h ****     \param pin port/pin object to tell the switch which hardware pin to use.
  47:../../libDaisy//src/hid/switch.h ****     \param update_rate Does nothing. Backwards compatibility until next breaking update.
  48:../../libDaisy//src/hid/switch.h ****     \param t switch type -- Default: TYPE_MOMENTARY
  49:../../libDaisy//src/hid/switch.h ****     \param pol switch polarity -- Default: POLARITY_INVERTED
  50:../../libDaisy//src/hid/switch.h ****     \param pu switch pull up/down -- Default: PULL_UP
  51:../../libDaisy//src/hid/switch.h ****     */
  52:../../libDaisy//src/hid/switch.h ****     void
  53:../../libDaisy//src/hid/switch.h ****     Init(dsy_gpio_pin pin, float update_rate, Type t, Polarity pol, Pull pu);
  54:../../libDaisy//src/hid/switch.h **** 
  55:../../libDaisy//src/hid/switch.h ****     /**
  56:../../libDaisy//src/hid/switch.h ****        Simplified Init.
  57:../../libDaisy//src/hid/switch.h ****        \param pin port/pin object to tell the switch which hardware pin to use.
  58:../../libDaisy//src/hid/switch.h ****        \param update_rate Left for backwards compatibility until next breaking change.
  59:../../libDaisy//src/hid/switch.h ****     */
  60:../../libDaisy//src/hid/switch.h ****     void Init(dsy_gpio_pin pin, float update_rate = 0.f);
  61:../../libDaisy//src/hid/switch.h **** 
  62:../../libDaisy//src/hid/switch.h ****     /** 
  63:../../libDaisy//src/hid/switch.h ****     Called at update_rate to debounce and handle timing for the switch.
  64:../../libDaisy//src/hid/switch.h ****     In order for events not to be missed, its important that the Edge/Pressed checks
  65:../../libDaisy//src/hid/switch.h ****     be made at the same rate as the debounce function is being called.
  66:../../libDaisy//src/hid/switch.h ****     */
  67:../../libDaisy//src/hid/switch.h ****     void Debounce();
  68:../../libDaisy//src/hid/switch.h **** 
  69:../../libDaisy//src/hid/switch.h ****     /** \return true if a button was just pressed. */
  70:../../libDaisy//src/hid/switch.h ****     inline bool RisingEdge() const { return updated_ ? state_ == 0x7f : false; }
 279              		.loc 3 70 17 view .LVU34
 280              	.LBB199:
 281              		.loc 3 70 38 view .LVU35
 282              		.loc 3 70 45 is_stmt 0 view .LVU36
 283 000a 2179     		ldrb	r1, [r4, #4]	@ zero_extendqisi2
 284              		.loc 3 70 54 view .LVU37
 285 000c 29B1     		cbz	r1, .L11
 286              	.LVL8:
 287              		.loc 3 70 54 view .LVU38
 288              	.LBE199:
 289              	.LBE198:
 290              		.loc 11 173 5 view .LVU39
 291 000e A17A     		ldrb	r1, [r4, #10]	@ zero_extendqisi2
 292 0010 A1F17F01 		sub	r1, #127
 293 0014 B1FA81F1 		clz	r1, r1
 294 0018 4909     		lsrs	r1, r1, #5
 295              	.L11:
 296              	.LVL9:
 174:MyNewProject.cpp ****         tap = true;
 175:MyNewProject.cpp **** 
 176:MyNewProject.cpp ****     tapTempo.update(tap);
 297              		.loc 11 176 5 is_stmt 1 view .LVU40
 298              		.loc 11 176 20 is_stmt 0 view .LVU41
 299 001a 0348     		ldr	r0, .L16+4
 177:MyNewProject.cpp **** 
 178:MyNewProject.cpp ****     
 179:MyNewProject.cpp **** }
 300              		.loc 11 179 1 view .LVU42
 301 001c BDE81040 		pop	{r4, lr}
 302              		.cfi_restore 14
 303              		.cfi_restore 4
 304              		.cfi_def_cfa_offset 0
ARM GAS  C:\Users\vngel\AppData\Local\Temp\ccf1b4Zx.s 			page 19


 176:MyNewProject.cpp **** 
 305              		.loc 11 176 20 view .LVU43
 306 0020 FFF7FEBF 		b	_ZN8TapTempo6updateEb
 307              	.LVL10:
 308              	.L17:
 176:MyNewProject.cpp **** 
 309              		.loc 11 176 20 view .LVU44
 310              		.align	2
 311              	.L16:
 312 0024 00000000 		.word	.LANCHOR0
 313 0028 00000000 		.word	.LANCHOR1
 314              		.cfi_endproc
 315              	.LFE4802:
 317              		.section	.text._Z15InitHeadButtonsv,"ax",%progbits
 318              		.align	1
 319              		.p2align 2,,3
 320              		.global	_Z15InitHeadButtonsv
 321              		.syntax unified
 322              		.thumb
 323              		.thumb_func
 324              		.fpu fpv5-d16
 326              	_Z15InitHeadButtonsv:
 327              	.LFB4803:
 180:MyNewProject.cpp **** 
 181:MyNewProject.cpp **** void InitHeadButtons()
 182:MyNewProject.cpp **** {
 328              		.loc 11 182 1 is_stmt 1 view -0
 329              		.cfi_startproc
 330              		@ args = 0, pretend = 0, frame = 8
 331              		@ frame_needed = 0, uses_anonymous_args = 0
 183:MyNewProject.cpp ****     // Iterate through head switch array
 184:MyNewProject.cpp ****     for(int i = 0; i < 4;i++)
 332              		.loc 11 184 5 view .LVU46
 333              	.LVL11:
 334              	.LBB200:
 335              		.loc 11 184 22 view .LVU47
 336              	.LBE200:
 182:MyNewProject.cpp ****     // Iterate through head switch array
 337              		.loc 11 182 1 is_stmt 0 view .LVU48
 338 0000 30B5     		push	{r4, r5, lr}
 339              		.cfi_def_cfa_offset 12
 340              		.cfi_offset 4, -12
 341              		.cfi_offset 5, -8
 342              		.cfi_offset 14, -4
 343 0002 0B4D     		ldr	r5, .L22
 344 0004 83B0     		sub	sp, sp, #12
 345              		.cfi_def_cfa_offset 24
 182:MyNewProject.cpp ****     // Iterate through head switch array
 346              		.loc 11 182 1 view .LVU49
 347 0006 1524     		movs	r4, #21
 348              	.LVL12:
 349              	.L19:
 350              	.LBB201:
 185:MyNewProject.cpp ****     {
 186:MyNewProject.cpp ****         // Init buttons to D21 - D24
 187:MyNewProject.cpp ****         headSwitches[i].Init(hw.GetPin(21+i),1000);
 351              		.loc 11 187 9 is_stmt 1 discriminator 2 view .LVU50
ARM GAS  C:\Users\vngel\AppData\Local\Temp\ccf1b4Zx.s 			page 20


 352              		.loc 11 187 29 is_stmt 0 discriminator 2 view .LVU51
 353 0008 2046     		mov	r0, r4
 184:MyNewProject.cpp ****     {
 354              		.loc 11 184 22 discriminator 2 view .LVU52
 355 000a 0134     		adds	r4, r4, #1
 356              		.loc 11 187 29 discriminator 2 view .LVU53
 357 000c FFF7FEFF 		bl	_ZN5daisy9DaisySeed6GetPinEh
 358              	.LVL13:
 359 0010 0346     		mov	r3, r0	@ movhi
 184:MyNewProject.cpp ****     {
 360              		.loc 11 184 22 discriminator 2 view .LVU54
 361 0012 E4B2     		uxtb	r4, r4
 362              		.loc 11 187 29 discriminator 2 view .LVU55
 363 0014 2846     		mov	r0, r5
 364 0016 ADF80430 		strh	r3, [sp, #4]	@ movhi
 184:MyNewProject.cpp ****     {
 365              		.loc 11 184 22 discriminator 2 view .LVU56
 366 001a 1035     		adds	r5, r5, #16
 367              		.loc 11 187 29 discriminator 2 view .LVU57
 368 001c 9FED050A 		vldr.32	s0, .L22+4
 369 0020 0199     		ldr	r1, [sp, #4]
 370 0022 FFF7FEFF 		bl	_ZN5daisy6Switch4InitE12dsy_gpio_pinf
 371              	.LVL14:
 184:MyNewProject.cpp ****     {
 372              		.loc 11 184 5 is_stmt 1 discriminator 2 view .LVU58
 184:MyNewProject.cpp ****     {
 373              		.loc 11 184 22 discriminator 2 view .LVU59
 374 0026 192C     		cmp	r4, #25
 375 0028 EED1     		bne	.L19
 376              	.LBE201:
 188:MyNewProject.cpp ****     }
 189:MyNewProject.cpp **** }
 377              		.loc 11 189 1 is_stmt 0 view .LVU60
 378 002a 03B0     		add	sp, sp, #12
 379              		.cfi_def_cfa_offset 12
 380              		@ sp needed
 381 002c 30BD     		pop	{r4, r5, pc}
 382              	.L23:
 383 002e 00BF     		.align	2
 384              	.L22:
 385 0030 00000000 		.word	.LANCHOR2
 386 0034 00007A44 		.word	1148846080
 387              		.cfi_endproc
 388              	.LFE4803:
 390              		.section	.rodata._Z15ProcessControlsv.str1.4,"aMS",%progbits,1
 391              		.align	2
 392              	.LC0:
 393 0000 74696D65 		.ascii	"time knob val: %f tap val: %f\000"
 393      206B6E6F 
 393      62207661 
 393      6C3A2025 
 393      66207461 
 394              		.section	.text._Z15ProcessControlsv,"ax",%progbits
 395              		.align	1
 396              		.p2align 2,,3
 397              		.global	_Z15ProcessControlsv
 398              		.syntax unified
ARM GAS  C:\Users\vngel\AppData\Local\Temp\ccf1b4Zx.s 			page 21


 399              		.thumb
 400              		.thumb_func
 401              		.fpu fpv5-d16
 403              	_Z15ProcessControlsv:
 404              	.LFB4804:
 190:MyNewProject.cpp **** 
 191:MyNewProject.cpp **** void ProcessControls()
 192:MyNewProject.cpp **** {
 405              		.loc 11 192 1 is_stmt 1 view -0
 406              		.cfi_startproc
 407              		@ args = 0, pretend = 0, frame = 8
 408              		@ frame_needed = 0, uses_anonymous_args = 0
 193:MyNewProject.cpp ****     delay.setFeedback(feedbackKnob.Process());
 409              		.loc 11 193 5 view .LVU62
 192:MyNewProject.cpp ****     delay.setFeedback(feedbackKnob.Process());
 410              		.loc 11 192 1 is_stmt 0 view .LVU63
 411 0000 10B5     		push	{r4, lr}
 412              		.cfi_def_cfa_offset 8
 413              		.cfi_offset 4, -8
 414              		.cfi_offset 14, -4
 415 0002 2DED028B 		vpush.64	{d8}
 416              		.cfi_def_cfa_offset 16
 417              		.cfi_offset 80, -16
 418              		.cfi_offset 81, -12
 419 0006 84B0     		sub	sp, sp, #16
 420              		.cfi_def_cfa_offset 32
 421              		.loc 11 193 43 view .LVU64
 422 0008 3548     		ldr	r0, .L39
 423 000a FFF7FEFF 		bl	_ZN5daisy9Parameter7ProcessEv
 424              	.LVL15:
 425              		.loc 11 193 22 view .LVU65
 426 000e 3548     		ldr	r0, .L39+4
 427 0010 03A9     		add	r1, sp, #12
 428              		.loc 11 193 43 view .LVU66
 429 0012 8DED030A 		vstr.32	s0, [sp, #12]
 430              		.loc 11 193 22 view .LVU67
 431 0016 FFF7FEFF 		bl	_ZN6Delayy11setFeedbackERKf
 432              	.LVL16:
 194:MyNewProject.cpp ****     tone.setFreq(toneKnob.Process());
 433              		.loc 11 194 5 is_stmt 1 view .LVU68
 434              		.loc 11 194 17 is_stmt 0 view .LVU69
 435 001a 3348     		ldr	r0, .L39+8
 436 001c FFF7FEFF 		bl	_ZN5daisy9Parameter7ProcessEv
 437              	.LVL17:
 195:MyNewProject.cpp ****     float tempoFromKnob = timeKnob.Process();
 196:MyNewProject.cpp ****     if( tempoFromKnob > tapTempo.getBPM() - 1 &&  tempoFromKnob < tapTempo.getBPM() + 1 )
 438              		.loc 11 196 43 view .LVU70
 439 0020 F7EE008A 		vmov.f32	s17, #1.0e+0
 194:MyNewProject.cpp ****     tone.setFreq(toneKnob.Process());
 440              		.loc 11 194 17 view .LVU71
 441 0024 3148     		ldr	r0, .L39+12
 442 0026 FFF7FEFF 		bl	_ZN10ToneFilter7setFreqEf
 443              	.LVL18:
 195:MyNewProject.cpp ****     float tempoFromKnob = timeKnob.Process();
 444              		.loc 11 195 5 is_stmt 1 view .LVU72
 195:MyNewProject.cpp ****     float tempoFromKnob = timeKnob.Process();
 445              		.loc 11 195 43 is_stmt 0 view .LVU73
ARM GAS  C:\Users\vngel\AppData\Local\Temp\ccf1b4Zx.s 			page 22


 446 002a 3148     		ldr	r0, .L39+16
 447 002c FFF7FEFF 		bl	_ZN5daisy9Parameter7ProcessEv
 448              	.LVL19:
 449              		.loc 11 196 40 view .LVU74
 450 0030 3048     		ldr	r0, .L39+20
 195:MyNewProject.cpp ****     float tempoFromKnob = timeKnob.Process();
 451              		.loc 11 195 43 view .LVU75
 452 0032 B0EE408A 		vmov.f32	s16, s0
 453              	.LVL20:
 454              		.loc 11 196 5 is_stmt 1 view .LVU76
 455              		.loc 11 196 40 is_stmt 0 view .LVU77
 456 0036 FFF7FEFF 		bl	_ZN8TapTempo6getBPMEv
 457              	.LVL21:
 458              		.loc 11 196 43 view .LVU78
 459 003a 30EE680A 		vsub.f32	s0, s0, s17
 460              		.loc 11 196 47 view .LVU79
 461 003e B4EEC80A 		vcmpe.f32	s0, s16
 462 0042 F1EE10FA 		vmrs	APSR_nzcv, FPSCR
 463 0046 35D4     		bmi	.L37
 464              	.L26:
 197:MyNewProject.cpp ****     {
 198:MyNewProject.cpp ****         delay.setBPM(tempoFromKnob);
 199:MyNewProject.cpp ****         tapTempo.setBPM(tempoFromKnob);
 200:MyNewProject.cpp ****     }
 201:MyNewProject.cpp **** 
 202:MyNewProject.cpp ****     for(int i = 0; i < 4;i++)
 465              		.loc 11 202 5 is_stmt 1 view .LVU80
 466              	.LBB202:
 467              		.loc 11 202 13 is_stmt 0 view .LVU81
 468 0048 0023     		movs	r3, #0
 469 004a 2B4C     		ldr	r4, .L39+24
 470              		.loc 11 202 22 view .LVU82
 471 004c 1846     		mov	r0, r3
 472              		.loc 11 202 13 view .LVU83
 473 004e 0393     		str	r3, [sp, #12]
 474              		.loc 11 202 22 is_stmt 1 view .LVU84
 475 0050 03E0     		b	.L30
 476              	.LVL22:
 477              	.L29:
 478              		.loc 11 202 5 discriminator 2 view .LVU85
 479 0052 0130     		adds	r0, r0, #1
 480              		.loc 11 202 22 is_stmt 0 discriminator 2 view .LVU86
 481 0054 0328     		cmp	r0, #3
 482              		.loc 11 202 5 discriminator 2 view .LVU87
 483 0056 0390     		str	r0, [sp, #12]
 484              		.loc 11 202 22 is_stmt 1 discriminator 2 view .LVU88
 485 0058 28DC     		bgt	.L38
 486              	.L30:
 203:MyNewProject.cpp ****     {
 204:MyNewProject.cpp ****         headSwitches[i].Debounce();
 487              		.loc 11 204 9 view .LVU89
 488              		.loc 11 204 33 is_stmt 0 view .LVU90
 489 005a 04EB0010 		add	r0, r4, r0, lsl #4
 490 005e FFF7FEFF 		bl	_ZN5daisy6Switch8DebounceEv
 491              	.LVL23:
 205:MyNewProject.cpp ****         if(headSwitches[i].RisingEdge())
 492              		.loc 11 205 9 is_stmt 1 view .LVU91
ARM GAS  C:\Users\vngel\AppData\Local\Temp\ccf1b4Zx.s 			page 23


 493              		.loc 11 205 26 is_stmt 0 view .LVU92
 494 0062 0398     		ldr	r0, [sp, #12]
 495              	.LVL24:
 496              	.LBB203:
 497              	.LBI203:
 498              		.loc 3 70 17 is_stmt 1 view .LVU93
 499              	.LBB204:
 500              		.loc 3 70 38 view .LVU94
 501              		.loc 3 70 45 is_stmt 0 view .LVU95
 502 0064 04EB0013 		add	r3, r4, r0, lsl #4
 503              		.loc 3 70 54 view .LVU96
 504 0068 1A79     		ldrb	r2, [r3, #4]	@ zero_extendqisi2
 505 006a 002A     		cmp	r2, #0
 506 006c F1D0     		beq	.L29
 507              	.LBE204:
 508              	.LBE203:
 509              		.loc 11 205 9 view .LVU97
 510 006e 9B7A     		ldrb	r3, [r3, #10]	@ zero_extendqisi2
 511 0070 7F2B     		cmp	r3, #127
 512 0072 EED1     		bne	.L29
 206:MyNewProject.cpp ****         {            
 207:MyNewProject.cpp ****             hw.PrintLine("time knob val: %f tap val: %f",timeKnob.Process(),tapTempo.getBPM());
 513              		.loc 11 207 13 is_stmt 1 view .LVU98
 514              		.loc 11 207 25 is_stmt 0 view .LVU99
 515 0074 1E48     		ldr	r0, .L39+16
 516              	.LVL25:
 517              		.loc 11 207 25 view .LVU100
 518 0076 FFF7FEFF 		bl	_ZN5daisy9Parameter7ProcessEv
 519              	.LVL26:
 520              		.loc 11 207 25 view .LVU101
 521 007a B0EE408A 		vmov.f32	s16, s0
 522 007e 1D48     		ldr	r0, .L39+20
 523 0080 FFF7FEFF 		bl	_ZN8TapTempo6getBPMEv
 524              	.LVL27:
 525              	.LBB205:
 526              	.LBI205:
  23:../../libDaisy//src/daisy_seed.h **** 
  24:../../libDaisy//src/daisy_seed.h ****     /** This function used to provide a pre-initialization configuraiton 
  25:../../libDaisy//src/daisy_seed.h ****      *  it has since been deprecated, and does nothing.
  26:../../libDaisy//src/daisy_seed.h ****      */
  27:../../libDaisy//src/daisy_seed.h ****     void Configure();
  28:../../libDaisy//src/daisy_seed.h **** 
  29:../../libDaisy//src/daisy_seed.h ****     /** 
  30:../../libDaisy//src/daisy_seed.h ****     Initializes the Daisy Seed and the following peripherals:
  31:../../libDaisy//src/daisy_seed.h ****     SDRAM, QSPI, 24-bit 48kHz Audio via AK4556, Internal USB,
  32:../../libDaisy//src/daisy_seed.h ****     as well as the built-in LED and Testpoint.
  33:../../libDaisy//src/daisy_seed.h **** 
  34:../../libDaisy//src/daisy_seed.h ****     ADCs, DACs, and other special peripherals (such as I2C, SPI, etc.)
  35:../../libDaisy//src/daisy_seed.h ****     can be initialized using their specific initializers within libdaisy
  36:../../libDaisy//src/daisy_seed.h ****     for a specific application.
  37:../../libDaisy//src/daisy_seed.h ****     */
  38:../../libDaisy//src/daisy_seed.h ****     void Init(bool boost = false);
  39:../../libDaisy//src/daisy_seed.h **** 
  40:../../libDaisy//src/daisy_seed.h ****     /** 
  41:../../libDaisy//src/daisy_seed.h ****     Deinitializes all peripherals automatically handled by `Init`.
  42:../../libDaisy//src/daisy_seed.h ****     */
  43:../../libDaisy//src/daisy_seed.h ****     void DeInit();
ARM GAS  C:\Users\vngel\AppData\Local\Temp\ccf1b4Zx.s 			page 24


  44:../../libDaisy//src/daisy_seed.h **** 
  45:../../libDaisy//src/daisy_seed.h ****     /** 
  46:../../libDaisy//src/daisy_seed.h ****     Wait some ms before going on.
  47:../../libDaisy//src/daisy_seed.h ****     \param del Delay time in ms.
  48:../../libDaisy//src/daisy_seed.h ****     */
  49:../../libDaisy//src/daisy_seed.h ****     void DelayMs(size_t del);
  50:../../libDaisy//src/daisy_seed.h **** 
  51:../../libDaisy//src/daisy_seed.h ****     /** 
  52:../../libDaisy//src/daisy_seed.h ****     Returns the gpio_pin corresponding to the index 0-31.
  53:../../libDaisy//src/daisy_seed.h ****     For the given GPIO on the Daisy Seed (labeled 1-32 in docs).
  54:../../libDaisy//src/daisy_seed.h ****     */
  55:../../libDaisy//src/daisy_seed.h ****     static dsy_gpio_pin GetPin(uint8_t pin_idx);
  56:../../libDaisy//src/daisy_seed.h **** 
  57:../../libDaisy//src/daisy_seed.h ****     /** Begins the audio for the seeds builtin audio.
  58:../../libDaisy//src/daisy_seed.h ****     the specified callback will get called whenever
  59:../../libDaisy//src/daisy_seed.h ****     new data is ready to be prepared.
  60:../../libDaisy//src/daisy_seed.h ****     */
  61:../../libDaisy//src/daisy_seed.h ****     void StartAudio(AudioHandle::InterleavingAudioCallback cb);
  62:../../libDaisy//src/daisy_seed.h **** 
  63:../../libDaisy//src/daisy_seed.h ****     /** Begins the audio for the seeds builtin audio.
  64:../../libDaisy//src/daisy_seed.h ****     the specified callback will get called whenever
  65:../../libDaisy//src/daisy_seed.h ****     new data is ready to be prepared.
  66:../../libDaisy//src/daisy_seed.h ****     This will use the newer non-interleaved callback.
  67:../../libDaisy//src/daisy_seed.h ****     */
  68:../../libDaisy//src/daisy_seed.h ****     void StartAudio(AudioHandle::AudioCallback cb);
  69:../../libDaisy//src/daisy_seed.h **** 
  70:../../libDaisy//src/daisy_seed.h ****     /** Changes to a new interleaved callback
  71:../../libDaisy//src/daisy_seed.h ****      */
  72:../../libDaisy//src/daisy_seed.h ****     void ChangeAudioCallback(AudioHandle::InterleavingAudioCallback cb);
  73:../../libDaisy//src/daisy_seed.h **** 
  74:../../libDaisy//src/daisy_seed.h ****     /** Changes to a new multichannel callback
  75:../../libDaisy//src/daisy_seed.h ****      */
  76:../../libDaisy//src/daisy_seed.h ****     void ChangeAudioCallback(AudioHandle::AudioCallback cb);
  77:../../libDaisy//src/daisy_seed.h **** 
  78:../../libDaisy//src/daisy_seed.h ****     /** Stops the audio if it is running. */
  79:../../libDaisy//src/daisy_seed.h ****     void StopAudio();
  80:../../libDaisy//src/daisy_seed.h **** 
  81:../../libDaisy//src/daisy_seed.h ****     /** Updates the Audio Sample Rate, and reinitializes.
  82:../../libDaisy//src/daisy_seed.h ****      ** Audio must be stopped for this to work.
  83:../../libDaisy//src/daisy_seed.h ****      */
  84:../../libDaisy//src/daisy_seed.h ****     void SetAudioSampleRate(SaiHandle::Config::SampleRate samplerate);
  85:../../libDaisy//src/daisy_seed.h **** 
  86:../../libDaisy//src/daisy_seed.h ****     /** Returns the audio sample rate in Hz as a floating point number.
  87:../../libDaisy//src/daisy_seed.h ****      */
  88:../../libDaisy//src/daisy_seed.h ****     float AudioSampleRate();
  89:../../libDaisy//src/daisy_seed.h **** 
  90:../../libDaisy//src/daisy_seed.h ****     /** Sets the number of samples processed per channel by the audio callback.
  91:../../libDaisy//src/daisy_seed.h ****      */
  92:../../libDaisy//src/daisy_seed.h ****     void SetAudioBlockSize(size_t blocksize);
  93:../../libDaisy//src/daisy_seed.h **** 
  94:../../libDaisy//src/daisy_seed.h ****     /** Returns the number of samples per channel in a block of audio. */
  95:../../libDaisy//src/daisy_seed.h ****     size_t AudioBlockSize();
  96:../../libDaisy//src/daisy_seed.h **** 
  97:../../libDaisy//src/daisy_seed.h ****     /** Returns the rate in Hz that the Audio callback is called */
  98:../../libDaisy//src/daisy_seed.h ****     float AudioCallbackRate() const;
  99:../../libDaisy//src/daisy_seed.h **** 
 100:../../libDaisy//src/daisy_seed.h ****     /** Sets the state of the built in LED
ARM GAS  C:\Users\vngel\AppData\Local\Temp\ccf1b4Zx.s 			page 25


 101:../../libDaisy//src/daisy_seed.h ****      */
 102:../../libDaisy//src/daisy_seed.h ****     void SetLed(bool state);
 103:../../libDaisy//src/daisy_seed.h **** 
 104:../../libDaisy//src/daisy_seed.h ****     /** Sets the state of the test point near pin 10
 105:../../libDaisy//src/daisy_seed.h ****      */
 106:../../libDaisy//src/daisy_seed.h ****     void SetTestPoint(bool state);
 107:../../libDaisy//src/daisy_seed.h **** 
 108:../../libDaisy//src/daisy_seed.h ****     /** Print formatted debug log message
 109:../../libDaisy//src/daisy_seed.h ****      */
 110:../../libDaisy//src/daisy_seed.h ****     template <typename... VA>
 111:../../libDaisy//src/daisy_seed.h ****     static void Print(const char* format, VA... va)
 112:../../libDaisy//src/daisy_seed.h ****     {
 113:../../libDaisy//src/daisy_seed.h ****         Log::Print(format, va...);
 114:../../libDaisy//src/daisy_seed.h ****     }
 115:../../libDaisy//src/daisy_seed.h **** 
 116:../../libDaisy//src/daisy_seed.h ****     /** Print formatted debug log message with automatic line termination
 117:../../libDaisy//src/daisy_seed.h ****     */
 118:../../libDaisy//src/daisy_seed.h ****     template <typename... VA>
 119:../../libDaisy//src/daisy_seed.h ****     static void PrintLine(const char* format, VA... va)
 527              		.loc 6 119 17 is_stmt 1 view .LVU102
 528              	.LBB206:
 120:../../libDaisy//src/daisy_seed.h ****     {
 121:../../libDaisy//src/daisy_seed.h ****         Log::PrintLine(format, va...);
 529              		.loc 6 121 23 is_stmt 0 view .LVU103
 530 0084 B7EEC00A 		vcvt.f64.f32	d0, s0
 531              	.LVL28:
 532              		.loc 6 121 23 view .LVU104
 533 0088 B7EEC87A 		vcvt.f64.f32	d7, s16
 534 008c 1B48     		ldr	r0, .L39+28
 535 008e 8DED000B 		vstr.64	d0, [sp]
 536 0092 53EC172B 		vmov	r2, r3, d7
 537 0096 FFF7FEFF 		bl	_ZN5daisy6LoggerILNS_17LoggerDestinationE1EE9PrintLineEPKcz
 538              	.LVL29:
 539              		.loc 6 121 23 view .LVU105
 540              	.LBE206:
 541              	.LBE205:
 208:MyNewProject.cpp ****             delay.toggleHead(i);
 542              		.loc 11 208 13 is_stmt 1 view .LVU106
 543              		.loc 11 208 29 is_stmt 0 view .LVU107
 544 009a 1248     		ldr	r0, .L39+4
 545 009c 03A9     		add	r1, sp, #12
 546 009e FFF7FEFF 		bl	_ZN6Delayy10toggleHeadERKi
 547              	.LVL30:
 202:MyNewProject.cpp ****     {
 548              		.loc 11 202 5 view .LVU108
 549 00a2 0398     		ldr	r0, [sp, #12]
 202:MyNewProject.cpp ****     {
 550              		.loc 11 202 5 is_stmt 1 view .LVU109
 551 00a4 0130     		adds	r0, r0, #1
 202:MyNewProject.cpp ****     {
 552              		.loc 11 202 22 is_stmt 0 view .LVU110
 553 00a6 0328     		cmp	r0, #3
 202:MyNewProject.cpp ****     {
 554              		.loc 11 202 5 view .LVU111
 555 00a8 0390     		str	r0, [sp, #12]
 202:MyNewProject.cpp ****     {
 556              		.loc 11 202 22 is_stmt 1 view .LVU112
ARM GAS  C:\Users\vngel\AppData\Local\Temp\ccf1b4Zx.s 			page 26


 557 00aa D6DD     		ble	.L30
 558              	.L38:
 559              	.LBE202:
 209:MyNewProject.cpp ****         }
 210:MyNewProject.cpp ****     }
 211:MyNewProject.cpp **** }
 560              		.loc 11 211 1 is_stmt 0 view .LVU113
 561 00ac 04B0     		add	sp, sp, #16
 562              		.cfi_remember_state
 563              		.cfi_def_cfa_offset 16
 564              		@ sp needed
 565 00ae BDEC028B 		vldm	sp!, {d8}
 566              		.cfi_restore 80
 567              		.cfi_restore 81
 568              		.cfi_def_cfa_offset 8
 569 00b2 10BD     		pop	{r4, pc}
 570              	.LVL31:
 571              	.L37:
 572              		.cfi_restore_state
 196:MyNewProject.cpp ****     {
 573              		.loc 11 196 82 discriminator 1 view .LVU114
 574 00b4 0F48     		ldr	r0, .L39+20
 575 00b6 FFF7FEFF 		bl	_ZN8TapTempo6getBPMEv
 576              	.LVL32:
 196:MyNewProject.cpp ****     {
 577              		.loc 11 196 85 discriminator 1 view .LVU115
 578 00ba 30EE280A 		vadd.f32	s0, s0, s17
 196:MyNewProject.cpp ****     {
 579              		.loc 11 196 47 discriminator 1 view .LVU116
 580 00be B4EEC80A 		vcmpe.f32	s0, s16
 581 00c2 F1EE10FA 		vmrs	APSR_nzcv, FPSCR
 582 00c6 BFDD     		ble	.L26
 198:MyNewProject.cpp ****         tapTempo.setBPM(tempoFromKnob);
 583              		.loc 11 198 9 is_stmt 1 view .LVU117
 198:MyNewProject.cpp ****         tapTempo.setBPM(tempoFromKnob);
 584              		.loc 11 198 21 is_stmt 0 view .LVU118
 585 00c8 B0EE480A 		vmov.f32	s0, s16
 586 00cc 0548     		ldr	r0, .L39+4
 587 00ce FFF7FEFF 		bl	_ZN6Delayy6setBPMEf
 588              	.LVL33:
 199:MyNewProject.cpp ****     }
 589              		.loc 11 199 9 is_stmt 1 view .LVU119
 199:MyNewProject.cpp ****     }
 590              		.loc 11 199 24 is_stmt 0 view .LVU120
 591 00d2 B0EE480A 		vmov.f32	s0, s16
 592 00d6 0748     		ldr	r0, .L39+20
 593 00d8 FFF7FEFF 		bl	_ZN8TapTempo6setBPMEf
 594              	.LVL34:
 595 00dc B4E7     		b	.L26
 596              	.L40:
 597 00de 00BF     		.align	2
 598              	.L39:
 599 00e0 00000000 		.word	.LANCHOR3
 600 00e4 00000000 		.word	.LANCHOR4
 601 00e8 00000000 		.word	.LANCHOR5
 602 00ec 00000000 		.word	.LANCHOR6
 603 00f0 00000000 		.word	.LANCHOR7
ARM GAS  C:\Users\vngel\AppData\Local\Temp\ccf1b4Zx.s 			page 27


 604 00f4 00000000 		.word	.LANCHOR1
 605 00f8 00000000 		.word	.LANCHOR2
 606 00fc 00000000 		.word	.LC0
 607              		.cfi_endproc
 608              	.LFE4804:
 610              		.section	.text._ZL13AudioCallbackPKPKfPPfj,"ax",%progbits
 611              		.align	1
 612              		.p2align 2,,3
 613              		.syntax unified
 614              		.thumb
 615              		.thumb_func
 616              		.fpu fpv5-d16
 618              	_ZL13AudioCallbackPKPKfPPfj:
 619              	.LVL35:
 620              	.LFB4800:
  45:MyNewProject.cpp ****     for(size_t i = 0; i < size; i++)
 621              		.loc 11 45 1 is_stmt 1 view -0
 622              		.cfi_startproc
 623              		@ args = 0, pretend = 0, frame = 8
 624              		@ frame_needed = 0, uses_anonymous_args = 0
  46:MyNewProject.cpp ****     {
 625              		.loc 11 46 5 view .LVU122
 626              	.LBB219:
  46:MyNewProject.cpp ****     {
 627              		.loc 11 46 25 view .LVU123
 628 0000 002A     		cmp	r2, #0
 629 0002 7CD0     		beq	.L59
 630              	.LBE219:
  45:MyNewProject.cpp ****     for(size_t i = 0; i < size; i++)
 631              		.loc 11 45 1 is_stmt 0 view .LVU124
 632 0004 2DE9F04F 		push	{r4, r5, r6, r7, r8, r9, r10, fp, lr}
 633              		.cfi_def_cfa_offset 36
 634              		.cfi_offset 4, -36
 635              		.cfi_offset 5, -32
 636              		.cfi_offset 6, -28
 637              		.cfi_offset 7, -24
 638              		.cfi_offset 8, -20
 639              		.cfi_offset 9, -16
 640              		.cfi_offset 10, -12
 641              		.cfi_offset 11, -8
 642              		.cfi_offset 14, -4
 643 0008 0546     		mov	r5, r0
 644 000a 0E46     		mov	r6, r1
 645 000c 9146     		mov	r9, r2
 646              	.LBB238:
  46:MyNewProject.cpp ****     {
 647              		.loc 11 46 16 view .LVU125
 648 000e 0024     		movs	r4, #0
 649 0010 3B4F     		ldr	r7, .L63
 650 0012 DFF80881 		ldr	r8, .L63+28
 651 0016 DFF808B1 		ldr	fp, .L63+32
 652              	.LBE238:
  45:MyNewProject.cpp ****     for(size_t i = 0; i < size; i++)
 653              		.loc 11 45 1 view .LVU126
 654 001a 2DED028B 		vpush.64	{d8}
 655              		.cfi_def_cfa_offset 44
 656              		.cfi_offset 80, -44
ARM GAS  C:\Users\vngel\AppData\Local\Temp\ccf1b4Zx.s 			page 28


 657              		.cfi_offset 81, -40
 658 001e 83B0     		sub	sp, sp, #12
 659              		.cfi_def_cfa_offset 56
 660 0020 42E0     		b	.L50
 661              	.LVL36:
 662              	.L49:
 663              	.LBB239:
 664              	.LBB220:
  67:MyNewProject.cpp ****         }
 665              		.loc 11 67 13 is_stmt 1 view .LVU127
  65:MyNewProject.cpp ****         {
 666              		.loc 11 65 33 is_stmt 0 view .LVU128
 667 0022 98F80030 		ldrb	r3, [r8]	@ zero_extendqisi2
  67:MyNewProject.cpp ****         }
 668              		.loc 11 67 32 view .LVU129
 669 0026 0022     		movs	r2, #0
  65:MyNewProject.cpp ****         {
 670              		.loc 11 65 33 view .LVU130
 671 0028 0BB1     		cbz	r3, .L48
  67:MyNewProject.cpp ****         }
 672              		.loc 11 67 32 view .LVU131
 673 002a 88F80020 		strb	r2, [r8]
 674              	.L48:
  70:MyNewProject.cpp **** 	    float all_delay_signals = 0; // Summation of all delay signals
 675              		.loc 11 70 9 is_stmt 1 discriminator 2 view .LVU132
 676              	.LVL37:
  71:MyNewProject.cpp ****         float nonConstInput;         // Will store the a copy of input float value at in[channel][i
 677              		.loc 11 71 6 discriminator 2 view .LVU133
  77:MyNewProject.cpp ****         float preFilter = all_delay_signals;
 678              		.loc 11 77 42 is_stmt 0 discriminator 2 view .LVU134
 679 002e 2B68     		ldr	r3, [r5]
  71:MyNewProject.cpp ****         float nonConstInput;         // Will store the a copy of input float value at in[channel][i
 680              		.loc 11 71 12 discriminator 2 view .LVU135
 681 0030 0022     		movs	r2, #0
  77:MyNewProject.cpp ****         float preFilter = all_delay_signals;
 682              		.loc 11 77 42 discriminator 2 view .LVU136
 683 0032 3448     		ldr	r0, .L63+4
 684 0034 4FEA840A 		lsl	r10, r4, #2
 685 0038 03EB8403 		add	r3, r3, r4, lsl #2
  71:MyNewProject.cpp ****         float nonConstInput;         // Will store the a copy of input float value at in[channel][i
 686              		.loc 11 71 12 discriminator 2 view .LVU137
 687 003c 0092     		str	r2, [sp]	@ float
  72:MyNewProject.cpp ****                                      // Needed because cfade.SetPos requieres non-const  
 688              		.loc 11 72 9 is_stmt 1 discriminator 2 view .LVU138
  77:MyNewProject.cpp ****         float preFilter = all_delay_signals;
 689              		.loc 11 77 9 discriminator 2 view .LVU139
 690              	.LBE220:
  46:MyNewProject.cpp ****     {
 691              		.loc 11 46 5 is_stmt 0 discriminator 2 view .LVU140
 692 003e 0134     		adds	r4, r4, #1
 693              	.LVL38:
 694              	.LBB235:
  77:MyNewProject.cpp ****         float preFilter = all_delay_signals;
 695              		.loc 11 77 42 discriminator 2 view .LVU141
 696 0040 93ED000A 		vldr.32	s0, [r3]
 697 0044 FFF7FEFF 		bl	_ZN6Delayy7processEf
 698              	.LVL39:
ARM GAS  C:\Users\vngel\AppData\Local\Temp\ccf1b4Zx.s 			page 29


  79:MyNewProject.cpp ****         all_delay_signals = balance.Process(all_delay_signals,preFilter*tone.getFactor());
 699              		.loc 11 79 41 discriminator 2 view .LVU142
 700 0048 2F48     		ldr	r0, .L63+8
  77:MyNewProject.cpp ****         float preFilter = all_delay_signals;
 701              		.loc 11 77 42 discriminator 2 view .LVU143
 702 004a B0EE408A 		vmov.f32	s16, s0
  77:MyNewProject.cpp ****         float preFilter = all_delay_signals;
 703              		.loc 11 77 27 discriminator 2 view .LVU144
 704 004e 8DED000A 		vstr.32	s0, [sp]
  78:MyNewProject.cpp ****         all_delay_signals = tone.process(all_delay_signals);
 705              		.loc 11 78 9 is_stmt 1 discriminator 2 view .LVU145
 706              	.LVL40:
  79:MyNewProject.cpp ****         all_delay_signals = balance.Process(all_delay_signals,preFilter*tone.getFactor());
 707              		.loc 11 79 9 discriminator 2 view .LVU146
  79:MyNewProject.cpp ****         all_delay_signals = balance.Process(all_delay_signals,preFilter*tone.getFactor());
 708              		.loc 11 79 41 is_stmt 0 discriminator 2 view .LVU147
 709 0052 FFF7FEFF 		bl	_ZN10ToneFilter7processEf
 710              	.LVL41:
  80:MyNewProject.cpp **** 
 711              		.loc 11 80 87 discriminator 2 view .LVU148
 712 0056 2C48     		ldr	r0, .L63+8
  79:MyNewProject.cpp ****         all_delay_signals = balance.Process(all_delay_signals,preFilter*tone.getFactor());
 713              		.loc 11 79 41 discriminator 2 view .LVU149
 714 0058 F0EE408A 		vmov.f32	s17, s0
  79:MyNewProject.cpp ****         all_delay_signals = balance.Process(all_delay_signals,preFilter*tone.getFactor());
 715              		.loc 11 79 27 discriminator 2 view .LVU150
 716 005c 8DED000A 		vstr.32	s0, [sp]
  80:MyNewProject.cpp **** 
 717              		.loc 11 80 9 is_stmt 1 discriminator 2 view .LVU151
  80:MyNewProject.cpp **** 
 718              		.loc 11 80 87 is_stmt 0 discriminator 2 view .LVU152
 719 0060 FFF7FEFF 		bl	_ZN10ToneFilter9getFactorEv
 720              	.LVL42:
 721 0064 F0EE400A 		vmov.f32	s1, s0
  80:MyNewProject.cpp **** 
 722              		.loc 11 80 44 discriminator 2 view .LVU153
 723 0068 2848     		ldr	r0, .L63+12
 724 006a B0EE680A 		vmov.f32	s0, s17
 725 006e 68EE200A 		vmul.f32	s1, s16, s1
 726 0072 FFF7FEFF 		bl	_ZN7daisysp7Balance7ProcessEff
 727              	.LVL43:
  85:MyNewProject.cpp **** 
 728              		.loc 11 85 32 discriminator 2 view .LVU154
 729 0076 2B68     		ldr	r3, [r5]
  80:MyNewProject.cpp **** 
 730              		.loc 11 80 27 discriminator 2 view .LVU155
 731 0078 8DED000A 		vstr.32	s0, [sp]
  85:MyNewProject.cpp **** 
 732              		.loc 11 85 9 is_stmt 1 discriminator 2 view .LVU156
  89:MyNewProject.cpp **** 		out[0][i]  = out [1][i] = final_mix;//filter; // this sends 'final_mix' to the left and right out
 733              		.loc 11 89 28 is_stmt 0 discriminator 2 view .LVU157
 734 007c 6A46     		mov	r2, sp
  85:MyNewProject.cpp **** 
 735              		.loc 11 85 32 discriminator 2 view .LVU158
 736 007e 5344     		add	r3, r3, r10
 737              	.LBB221:
 738              	.LBB222:
ARM GAS  C:\Users\vngel\AppData\Local\Temp\ccf1b4Zx.s 			page 30


  38:../../DaisySP//Source/Dynamics/crossfade.h ****     /** Initializes CrossFade module
  39:../../DaisySP//Source/Dynamics/crossfade.h ****         Defaults
  40:../../DaisySP//Source/Dynamics/crossfade.h ****         - current position = .5
  41:../../DaisySP//Source/Dynamics/crossfade.h ****         - curve = linear
  42:../../DaisySP//Source/Dynamics/crossfade.h ****     */
  43:../../DaisySP//Source/Dynamics/crossfade.h ****     inline void Init(int curve)
  44:../../DaisySP//Source/Dynamics/crossfade.h ****     {
  45:../../DaisySP//Source/Dynamics/crossfade.h ****         pos_   = 0.5f;
  46:../../DaisySP//Source/Dynamics/crossfade.h ****         curve_ = curve < CROSSFADE_LAST ? curve : CROSSFADE_LIN;
  47:../../DaisySP//Source/Dynamics/crossfade.h ****     }
  48:../../DaisySP//Source/Dynamics/crossfade.h **** 
  49:../../DaisySP//Source/Dynamics/crossfade.h ****     /** Initialize with default linear curve 
  50:../../DaisySP//Source/Dynamics/crossfade.h ****     */
  51:../../DaisySP//Source/Dynamics/crossfade.h ****     inline void Init() { Init(CROSSFADE_LIN); }
  52:../../DaisySP//Source/Dynamics/crossfade.h ****     /** processes CrossFade and returns single sample
  53:../../DaisySP//Source/Dynamics/crossfade.h ****     */
  54:../../DaisySP//Source/Dynamics/crossfade.h ****     float Process(float &in1, float &in2);
  55:../../DaisySP//Source/Dynamics/crossfade.h **** 
  56:../../DaisySP//Source/Dynamics/crossfade.h **** 
  57:../../DaisySP//Source/Dynamics/crossfade.h ****     /** Sets position of CrossFade between two input signals
  58:../../DaisySP//Source/Dynamics/crossfade.h ****         Input range: 0 to 1
  59:../../DaisySP//Source/Dynamics/crossfade.h ****     */
  60:../../DaisySP//Source/Dynamics/crossfade.h ****     inline void SetPos(float pos) { pos_ = pos; }
 739              		.loc 2 60 42 discriminator 2 view .LVU159
 740 0080 2349     		ldr	r1, .L63+16
 741              	.LBE222:
 742              	.LBE221:
  89:MyNewProject.cpp **** 		out[0][i]  = out [1][i] = final_mix;//filter; // this sends 'final_mix' to the left and right out
 743              		.loc 11 89 28 discriminator 2 view .LVU160
 744 0082 2348     		ldr	r0, .L63+16
  85:MyNewProject.cpp **** 
 745              		.loc 11 85 32 discriminator 2 view .LVU161
 746 0084 1B68     		ldr	r3, [r3]	@ float
  85:MyNewProject.cpp **** 
 747              		.loc 11 85 23 discriminator 2 view .LVU162
 748 0086 0193     		str	r3, [sp, #4]	@ float
  88:MyNewProject.cpp **** 		final_mix = cfade.Process(nonConstInput, all_delay_signals);
 749              		.loc 11 88 3 is_stmt 1 discriminator 2 view .LVU163
 750              	.LVL44:
 751              	.LBB224:
 752              	.LBI221:
 753              		.loc 2 60 17 discriminator 2 view .LVU164
 754              	.LBB223:
 755              		.loc 2 60 37 discriminator 2 view .LVU165
 756              		.loc 2 60 42 is_stmt 0 discriminator 2 view .LVU166
 757 0088 DBF80030 		ldr	r3, [fp]	@ float
 758 008c 0B60     		str	r3, [r1]	@ float
 759              	.LVL45:
 760              		.loc 2 60 42 discriminator 2 view .LVU167
 761              	.LBE223:
 762              	.LBE224:
  89:MyNewProject.cpp **** 		out[0][i]  = out [1][i] = final_mix;//filter; // this sends 'final_mix' to the left and right out
 763              		.loc 11 89 3 is_stmt 1 discriminator 2 view .LVU168
  89:MyNewProject.cpp **** 		out[0][i]  = out [1][i] = final_mix;//filter; // this sends 'final_mix' to the left and right out
 764              		.loc 11 89 28 is_stmt 0 discriminator 2 view .LVU169
 765 008e 01A9     		add	r1, sp, #4
 766 0090 FFF7FEFF 		bl	_ZN7daisysp9CrossFade7ProcessERfS1_
ARM GAS  C:\Users\vngel\AppData\Local\Temp\ccf1b4Zx.s 			page 31


 767              	.LVL46:
  90:MyNewProject.cpp ****     }
 768              		.loc 11 90 27 discriminator 2 view .LVU170
 769 0094 7368     		ldr	r3, [r6, #4]
 770              	.LVL47:
  90:MyNewProject.cpp ****     }
 771              		.loc 11 90 3 is_stmt 1 discriminator 2 view .LVU171
 772              	.LBE235:
  46:MyNewProject.cpp ****     {
 773              		.loc 11 46 25 is_stmt 0 discriminator 2 view .LVU172
 774 0096 A145     		cmp	r9, r4
 775              	.LBB236:
  90:MyNewProject.cpp ****     }
 776              		.loc 11 90 27 discriminator 2 view .LVU173
 777 0098 5344     		add	r3, r3, r10
 778 009a 83ED000A 		vstr.32	s0, [r3]
  90:MyNewProject.cpp ****     }
 779              		.loc 11 90 14 discriminator 2 view .LVU174
 780 009e 3368     		ldr	r3, [r6]
 781 00a0 5344     		add	r3, r3, r10
 782 00a2 83ED000A 		vstr.32	s0, [r3]
 783              	.LBE236:
  46:MyNewProject.cpp ****     {
 784              		.loc 11 46 5 is_stmt 1 discriminator 2 view .LVU175
 785              	.LVL48:
  46:MyNewProject.cpp ****     {
 786              		.loc 11 46 25 discriminator 2 view .LVU176
 787 00a6 25D0     		beq	.L62
 788              	.LVL49:
 789              	.L50:
 790              	.LBB237:
  49:MyNewProject.cpp ****         // Check for tempo change
 791              		.loc 11 49 9 view .LVU177
  49:MyNewProject.cpp ****         // Check for tempo change
 792              		.loc 11 49 24 is_stmt 0 view .LVU178
 793 00a8 FFF7FEFF 		bl	_Z15ProcessControlsv
 794              	.LVL50:
  51:MyNewProject.cpp ****         // Set delays with new bpm
 795              		.loc 11 51 9 is_stmt 1 view .LVU179
 796              	.LBB225:
 797              	.LBI225:
 168:MyNewProject.cpp **** {
 798              		.loc 11 168 6 view .LVU180
 799              	.LBB226:
 171:MyNewProject.cpp ****     TEMPO_BUTTON.Debounce();
 800              		.loc 11 171 5 view .LVU181
 172:MyNewProject.cpp ****     if(TEMPO_BUTTON.RisingEdge())
 801              		.loc 11 172 5 view .LVU182
 172:MyNewProject.cpp ****     if(TEMPO_BUTTON.RisingEdge())
 802              		.loc 11 172 26 is_stmt 0 view .LVU183
 803 00ac 1448     		ldr	r0, .L63
 804 00ae FFF7FEFF 		bl	_ZN5daisy6Switch8DebounceEv
 805              	.LVL51:
 173:MyNewProject.cpp ****         tap = true;
 806              		.loc 11 173 5 is_stmt 1 view .LVU184
 807              	.LBB227:
 808              	.LBI227:
ARM GAS  C:\Users\vngel\AppData\Local\Temp\ccf1b4Zx.s 			page 32


 809              		.loc 3 70 17 view .LVU185
 810              	.LBB228:
 811              		.loc 3 70 38 view .LVU186
 812              		.loc 3 70 45 is_stmt 0 view .LVU187
 813 00b2 3979     		ldrb	r1, [r7, #4]	@ zero_extendqisi2
 814              	.LBE228:
 815              	.LBE227:
 176:MyNewProject.cpp **** 
 816              		.loc 11 176 20 view .LVU188
 817 00b4 1748     		ldr	r0, .L63+20
 818              	.LBB230:
 819              	.LBB229:
 820              		.loc 3 70 54 view .LVU189
 821 00b6 29B1     		cbz	r1, .L43
 822              	.LBE229:
 823              	.LBE230:
 173:MyNewProject.cpp ****         tap = true;
 824              		.loc 11 173 5 view .LVU190
 825 00b8 B97A     		ldrb	r1, [r7, #10]	@ zero_extendqisi2
 826 00ba A1F17F01 		sub	r1, #127
 827 00be B1FA81F1 		clz	r1, r1
 828 00c2 4909     		lsrs	r1, r1, #5
 829              	.L43:
 830              	.LVL52:
 176:MyNewProject.cpp **** 
 831              		.loc 11 176 5 is_stmt 1 view .LVU191
 176:MyNewProject.cpp **** 
 832              		.loc 11 176 20 is_stmt 0 view .LVU192
 833 00c4 FFF7FEFF 		bl	_ZN8TapTempo6updateEb
 834              	.LVL53:
 176:MyNewProject.cpp **** 
 835              		.loc 11 176 20 view .LVU193
 836              	.LBE226:
 837              	.LBE225:
  56:MyNewProject.cpp ****         // Check if the button is pressed and was not previously pressed
 838              		.loc 11 56 9 is_stmt 1 view .LVU194
  56:MyNewProject.cpp ****         // Check if the button is pressed and was not previously pressed
 839              		.loc 11 56 27 is_stmt 0 view .LVU195
 840 00c8 1348     		ldr	r0, .L63+24
 841 00ca FFF7FEFF 		bl	_ZN5daisy6Switch8DebounceEv
 842              	.LVL54:
  58:MyNewProject.cpp ****         {
 843              		.loc 11 58 9 is_stmt 1 view .LVU196
 844              	.LBB231:
 845              	.LBI231:
  71:../../libDaisy//src/hid/switch.h **** 
  72:../../libDaisy//src/hid/switch.h ****     /** \return true if the button was just released */
  73:../../libDaisy//src/hid/switch.h ****     inline bool FallingEdge() const
  74:../../libDaisy//src/hid/switch.h ****     {
  75:../../libDaisy//src/hid/switch.h ****         return updated_ ? state_ == 0x80 : false;
  76:../../libDaisy//src/hid/switch.h ****     }
  77:../../libDaisy//src/hid/switch.h **** 
  78:../../libDaisy//src/hid/switch.h ****     /** \return true if the button is held down (or if the toggle is on) */
  79:../../libDaisy//src/hid/switch.h ****     inline bool Pressed() const { return state_ == 0xff; }
 846              		.loc 3 79 17 view .LVU197
 847              	.LBB232:
 848              		.loc 3 79 35 view .LVU198
ARM GAS  C:\Users\vngel\AppData\Local\Temp\ccf1b4Zx.s 			page 33


 849              		.loc 3 79 35 is_stmt 0 view .LVU199
 850              	.LBE232:
 851              	.LBE231:
  58:MyNewProject.cpp ****         {
 852              		.loc 11 58 32 view .LVU200
 853 00ce 124B     		ldr	r3, .L63+24
 854 00d0 9B7A     		ldrb	r3, [r3, #10]	@ zero_extendqisi2
 855 00d2 FF2B     		cmp	r3, #255
 856 00d4 A5D1     		bne	.L49
  58:MyNewProject.cpp ****         {
 857              		.loc 11 58 32 discriminator 1 view .LVU201
 858 00d6 98F80030 		ldrb	r3, [r8]	@ zero_extendqisi2
 859 00da 002B     		cmp	r3, #0
 860 00dc A7D1     		bne	.L48
  60:MyNewProject.cpp ****             delay.stopAll();
 861              		.loc 11 60 13 is_stmt 1 view .LVU202
  60:MyNewProject.cpp ****             delay.stopAll();
 862              		.loc 11 60 32 is_stmt 0 view .LVU203
 863 00de 0123     		movs	r3, #1
  61:MyNewProject.cpp ****         }
 864              		.loc 11 61 26 view .LVU204
 865 00e0 0848     		ldr	r0, .L63+4
  60:MyNewProject.cpp ****             delay.stopAll();
 866              		.loc 11 60 32 view .LVU205
 867 00e2 88F80030 		strb	r3, [r8]
  61:MyNewProject.cpp ****         }
 868              		.loc 11 61 13 is_stmt 1 view .LVU206
  61:MyNewProject.cpp ****         }
 869              		.loc 11 61 26 is_stmt 0 view .LVU207
 870 00e6 FFF7FEFF 		bl	_ZN6Delayy7stopAllEv
 871              	.LVL55:
  65:MyNewProject.cpp ****         {
 872              		.loc 11 65 9 is_stmt 1 view .LVU208
 873              	.LBB233:
 874              	.LBI233:
 875              		.loc 3 79 17 view .LVU209
 876              	.LBB234:
 877              		.loc 3 79 35 view .LVU210
 878              		.loc 3 79 35 is_stmt 0 view .LVU211
 879              	.LBE234:
 880              	.LBE233:
  65:MyNewProject.cpp ****         {
 881              		.loc 11 65 33 view .LVU212
 882 00ea 0B4B     		ldr	r3, .L63+24
 883 00ec 9B7A     		ldrb	r3, [r3, #10]	@ zero_extendqisi2
 884 00ee FF2B     		cmp	r3, #255
 885 00f0 9DD0     		beq	.L48
 886 00f2 96E7     		b	.L49
 887              	.LVL56:
 888              	.L62:
  65:MyNewProject.cpp ****         {
 889              		.loc 11 65 33 view .LVU213
 890              	.LBE237:
 891              	.LBE239:
  92:MyNewProject.cpp **** 
 892              		.loc 11 92 1 view .LVU214
 893 00f4 03B0     		add	sp, sp, #12
ARM GAS  C:\Users\vngel\AppData\Local\Temp\ccf1b4Zx.s 			page 34


 894              		.cfi_def_cfa_offset 44
 895              		@ sp needed
 896 00f6 BDEC028B 		vldm	sp!, {d8}
 897              		.cfi_restore 80
 898              		.cfi_restore 81
 899              		.cfi_def_cfa_offset 36
 900              	.LVL57:
  92:MyNewProject.cpp **** 
 901              		.loc 11 92 1 view .LVU215
 902 00fa BDE8F08F 		pop	{r4, r5, r6, r7, r8, r9, r10, fp, pc}
 903              	.LVL58:
 904              	.L59:
 905              		.cfi_def_cfa_offset 0
 906              		.cfi_restore 4
 907              		.cfi_restore 5
 908              		.cfi_restore 6
 909              		.cfi_restore 7
 910              		.cfi_restore 8
 911              		.cfi_restore 9
 912              		.cfi_restore 10
 913              		.cfi_restore 11
 914              		.cfi_restore 14
  92:MyNewProject.cpp **** 
 915              		.loc 11 92 1 view .LVU216
 916 00fe 7047     		bx	lr
 917              	.L64:
 918              		.align	2
 919              	.L63:
 920 0100 00000000 		.word	.LANCHOR0
 921 0104 00000000 		.word	.LANCHOR4
 922 0108 00000000 		.word	.LANCHOR6
 923 010c 00000000 		.word	.LANCHOR10
 924 0110 00000000 		.word	.LANCHOR11
 925 0114 00000000 		.word	.LANCHOR1
 926 0118 00000000 		.word	.LANCHOR8
 927 011c 00000000 		.word	.LANCHOR9
 928 0120 00000000 		.word	.LANCHOR12
 929              		.cfi_endproc
 930              	.LFE4800:
 932              		.section	.text._Z9initDelayv,"ax",%progbits
 933              		.align	1
 934              		.p2align 2,,3
 935              		.global	_Z9initDelayv
 936              		.syntax unified
 937              		.thumb
 938              		.thumb_func
 939              		.fpu fpv5-d16
 941              	_Z9initDelayv:
 942              	.LFB4805:
 212:MyNewProject.cpp **** 
 213:MyNewProject.cpp **** void initDelay()
 214:MyNewProject.cpp **** {
 943              		.loc 11 214 1 is_stmt 1 view -0
 944              		.cfi_startproc
 945              		@ args = 0, pretend = 0, frame = 0
 946              		@ frame_needed = 0, uses_anonymous_args = 0
 215:MyNewProject.cpp ****     for (int i = 0; i < 4; i++)
ARM GAS  C:\Users\vngel\AppData\Local\Temp\ccf1b4Zx.s 			page 35


 947              		.loc 11 215 5 view .LVU218
 948              	.LVL59:
 949              	.LBB240:
 950              		.loc 11 215 23 view .LVU219
 951              	.LBE240:
 214:MyNewProject.cpp ****     for (int i = 0; i < 4; i++)
 952              		.loc 11 214 1 is_stmt 0 view .LVU220
 953 0000 F8B5     		push	{r3, r4, r5, r6, r7, lr}
 954              		.cfi_def_cfa_offset 24
 955              		.cfi_offset 3, -24
 956              		.cfi_offset 4, -20
 957              		.cfi_offset 5, -16
 958              		.cfi_offset 6, -12
 959              		.cfi_offset 7, -8
 960              		.cfi_offset 14, -4
 961 0002 164C     		ldr	r4, .L69
 962 0004 164D     		ldr	r5, .L69+4
 963 0006 174F     		ldr	r7, .L69+8
 964 0008 2DED028B 		vpush.64	{d8}
 965              		.cfi_def_cfa_offset 32
 966              		.cfi_offset 80, -32
 967              		.cfi_offset 81, -28
 968              	.LVL60:
 969              	.L66:
 970              	.LBB249:
 216:MyNewProject.cpp ****     {
 217:MyNewProject.cpp ****         delayMems[i].Init();
 971              		.loc 11 217 9 is_stmt 1 discriminator 2 view .LVU221
 972              	.LBB241:
 973              	.LBI241:
 974              		.file 15 "../../DaisySP//Source/Utility/delayline.h"
   1:../../DaisySP//Source/Utility/delayline.h **** #pragma once
   2:../../DaisySP//Source/Utility/delayline.h **** #ifndef DSY_DELAY_H
   3:../../DaisySP//Source/Utility/delayline.h **** #define DSY_DELAY_H
   4:../../DaisySP//Source/Utility/delayline.h **** #include <stdlib.h>
   5:../../DaisySP//Source/Utility/delayline.h **** #include <stdint.h>
   6:../../DaisySP//Source/Utility/delayline.h **** namespace daisysp
   7:../../DaisySP//Source/Utility/delayline.h **** {
   8:../../DaisySP//Source/Utility/delayline.h **** /** Simple Delay line.
   9:../../DaisySP//Source/Utility/delayline.h **** November 2019
  10:../../DaisySP//Source/Utility/delayline.h **** 
  11:../../DaisySP//Source/Utility/delayline.h **** Converted to Template December 2019
  12:../../DaisySP//Source/Utility/delayline.h **** 
  13:../../DaisySP//Source/Utility/delayline.h **** declaration example: (1 second of floats)
  14:../../DaisySP//Source/Utility/delayline.h **** 
  15:../../DaisySP//Source/Utility/delayline.h **** DelayLine<float, SAMPLE_RATE> del;
  16:../../DaisySP//Source/Utility/delayline.h **** 
  17:../../DaisySP//Source/Utility/delayline.h **** By: shensley
  18:../../DaisySP//Source/Utility/delayline.h **** */
  19:../../DaisySP//Source/Utility/delayline.h **** template <typename T, size_t max_size>
  20:../../DaisySP//Source/Utility/delayline.h **** class DelayLine
  21:../../DaisySP//Source/Utility/delayline.h **** {
  22:../../DaisySP//Source/Utility/delayline.h ****   public:
  23:../../DaisySP//Source/Utility/delayline.h ****     DelayLine() {}
  24:../../DaisySP//Source/Utility/delayline.h ****     ~DelayLine() {}
  25:../../DaisySP//Source/Utility/delayline.h ****     /** initializes the delay line by clearing the values within, and setting delay to 1 sample.
  26:../../DaisySP//Source/Utility/delayline.h ****     */
ARM GAS  C:\Users\vngel\AppData\Local\Temp\ccf1b4Zx.s 			page 36


  27:../../DaisySP//Source/Utility/delayline.h ****     void Init() { Reset(); }
 975              		.loc 15 27 10 discriminator 2 view .LVU222
 976              	.LBB242:
 977              	.LBI242:
  28:../../DaisySP//Source/Utility/delayline.h ****     /** clears buffer, sets write ptr to 0, and delay to 1 sample.
  29:../../DaisySP//Source/Utility/delayline.h ****     */
  30:../../DaisySP//Source/Utility/delayline.h ****     void Reset()
 978              		.loc 15 30 10 discriminator 2 view .LVU223
 979              	.LBB243:
 980              	.LBB244:
  31:../../DaisySP//Source/Utility/delayline.h ****     {
  32:../../DaisySP//Source/Utility/delayline.h ****         for(size_t i = 0; i < max_size; i++)
 981              		.loc 15 32 29 discriminator 2 view .LVU224
  33:../../DaisySP//Source/Utility/delayline.h ****         {
  34:../../DaisySP//Source/Utility/delayline.h ****             line_[i] = T(0);
 982              		.loc 15 34 22 is_stmt 0 discriminator 2 view .LVU225
 983 000c 04F10C00 		add	r0, r4, #12
 984 0010 154A     		ldr	r2, .L69+12
 985 0012 0021     		movs	r1, #0
 986              	.LBE244:
  35:../../DaisySP//Source/Utility/delayline.h ****         }
  36:../../DaisySP//Source/Utility/delayline.h ****         write_ptr_ = 0;
  37:../../DaisySP//Source/Utility/delayline.h ****         delay_     = 1;
 987              		.loc 15 37 20 discriminator 2 view .LVU226
 988 0014 0126     		movs	r6, #1
 989              	.LBB245:
  34:../../DaisySP//Source/Utility/delayline.h ****         }
 990              		.loc 15 34 22 discriminator 2 view .LVU227
 991 0016 FFF7FEFF 		bl	memset
 992              	.LVL61:
  34:../../DaisySP//Source/Utility/delayline.h ****         }
 993              		.loc 15 34 22 discriminator 2 view .LVU228
 994              	.LBE245:
  36:../../DaisySP//Source/Utility/delayline.h ****         delay_     = 1;
 995              		.loc 15 36 20 discriminator 2 view .LVU229
 996 001a 0023     		movs	r3, #0
 997              	.LBE243:
 998              	.LBE242:
 999              	.LBE241:
 218:MyNewProject.cpp ****         delay.delayHeads[i].delay = &delayMems[i];
 1000              		.loc 11 218 35 discriminator 2 view .LVU230
 1001 001c EC60     		str	r4, [r5, #12]
 215:MyNewProject.cpp ****     {
 1002              		.loc 11 215 23 discriminator 2 view .LVU231
 1003 001e 1035     		adds	r5, r5, #16
 1004              	.LBB248:
 1005              	.LBB247:
 1006              	.LBB246:
  36:../../DaisySP//Source/Utility/delayline.h ****         delay_     = 1;
 1007              		.loc 15 36 20 discriminator 2 view .LVU232
 1008 0020 C4E90136 		strd	r3, r6, [r4, #4]
 1009              	.LBE246:
 1010              	.LBE247:
 1011              	.LBE248:
 215:MyNewProject.cpp ****     {
 1012              		.loc 11 215 23 discriminator 2 view .LVU233
 1013 0024 04F5BB24 		add	r4, r4, #382976
ARM GAS  C:\Users\vngel\AppData\Local\Temp\ccf1b4Zx.s 			page 37


 1014              	.LVL62:
 215:MyNewProject.cpp ****     {
 1015              		.loc 11 215 23 discriminator 2 view .LVU234
 1016 0028 04F20C44 		addw	r4, r4, #1036
 1017 002c BC42     		cmp	r4, r7
 1018 002e EDD1     		bne	.L66
 1019              	.LBE249:
 219:MyNewProject.cpp ****     }
 220:MyNewProject.cpp **** 
 221:MyNewProject.cpp ****     // Set the BPM at start up to the current value of knob
 222:MyNewProject.cpp ****     float initBPM = toneKnob.Process();
 1020              		.loc 11 222 5 is_stmt 1 view .LVU235
 1021              		.loc 11 222 37 is_stmt 0 view .LVU236
 1022 0030 0E48     		ldr	r0, .L69+16
 1023 0032 FFF7FEFF 		bl	_ZN5daisy9Parameter7ProcessEv
 1024              	.LVL63:
 1025              		.loc 11 222 37 view .LVU237
 1026 0036 B0EE408A 		vmov.f32	s16, s0
 1027              	.LVL64:
 223:MyNewProject.cpp ****     delay.setBPM(initBPM);
 1028              		.loc 11 223 5 is_stmt 1 view .LVU238
 1029              		.loc 11 223 17 is_stmt 0 view .LVU239
 1030 003a 0948     		ldr	r0, .L69+4
 1031 003c FFF7FEFF 		bl	_ZN6Delayy6setBPMEf
 1032              	.LVL65:
 224:MyNewProject.cpp ****     tapTempo.update(true);
 1033              		.loc 11 224 5 is_stmt 1 view .LVU240
 1034              		.loc 11 224 20 is_stmt 0 view .LVU241
 1035 0040 3146     		mov	r1, r6
 1036 0042 0B48     		ldr	r0, .L69+20
 1037 0044 FFF7FEFF 		bl	_ZN8TapTempo6updateEb
 1038              	.LVL66:
 225:MyNewProject.cpp ****     tapTempo.setBPM(initBPM);
 1039              		.loc 11 225 5 is_stmt 1 view .LVU242
 1040              		.loc 11 225 20 is_stmt 0 view .LVU243
 1041 0048 B0EE480A 		vmov.f32	s0, s16
 1042 004c 0848     		ldr	r0, .L69+20
 226:MyNewProject.cpp ****         
 227:MyNewProject.cpp **** }
 1043              		.loc 11 227 1 view .LVU244
 1044 004e BDEC028B 		vldm	sp!, {d8}
 1045              		.cfi_restore 80
 1046              		.cfi_restore 81
 1047              		.cfi_def_cfa_offset 24
 1048              	.LVL67:
 1049              		.loc 11 227 1 view .LVU245
 1050 0052 BDE8F840 		pop	{r3, r4, r5, r6, r7, lr}
 1051              		.cfi_restore 14
 1052              		.cfi_restore 7
 1053              		.cfi_restore 6
 1054              		.cfi_restore 5
 1055              		.cfi_restore 4
 1056              		.cfi_restore 3
 1057              		.cfi_def_cfa_offset 0
 1058              	.LVL68:
 225:MyNewProject.cpp ****     tapTempo.setBPM(initBPM);
 1059              		.loc 11 225 20 view .LVU246
ARM GAS  C:\Users\vngel\AppData\Local\Temp\ccf1b4Zx.s 			page 38


 1060 0056 FFF7FEBF 		b	_ZN8TapTempo6setBPMEf
 1061              	.LVL69:
 1062              	.L70:
 225:MyNewProject.cpp ****     tapTempo.setBPM(initBPM);
 1063              		.loc 11 225 20 view .LVU247
 1064 005a 00BF     		.align	2
 1065              	.L69:
 1066 005c 00000000 		.word	delayMems
 1067 0060 00000000 		.word	.LANCHOR4
 1068 0064 30701700 		.word	delayMems+1536048
 1069 0068 00DC0500 		.word	384000
 1070 006c 00000000 		.word	.LANCHOR5
 1071 0070 00000000 		.word	.LANCHOR1
 1072              		.cfi_endproc
 1073              	.LFE4805:
 1075              		.section	.text.startup.main,"ax",%progbits
 1076              		.align	1
 1077              		.p2align 2,,3
 1078              		.global	main
 1079              		.syntax unified
 1080              		.thumb
 1081              		.thumb_func
 1082              		.fpu fpv5-d16
 1084              	main:
 1085              	.LFB4801:
  95:MyNewProject.cpp ****     // Initialize seed hardware.
 1086              		.loc 11 95 1 is_stmt 1 view -0
 1087              		.cfi_startproc
 1088              		@ Volatile: function does not return.
 1089              		@ args = 0, pretend = 0, frame = 272
 1090              		@ frame_needed = 0, uses_anonymous_args = 0
  97:MyNewProject.cpp **** 
 1091              		.loc 11 97 5 view .LVU249
  95:MyNewProject.cpp ****     // Initialize seed hardware.
 1092              		.loc 11 95 1 is_stmt 0 view .LVU250
 1093 0000 80B5     		push	{r7, lr}
 1094              		.cfi_def_cfa_offset 8
 1095              		.cfi_offset 7, -8
 1096              		.cfi_offset 14, -4
  97:MyNewProject.cpp **** 
 1097              		.loc 11 97 12 view .LVU251
 1098 0002 0021     		movs	r1, #0
  95:MyNewProject.cpp ****     // Initialize seed hardware.
 1099              		.loc 11 95 1 view .LVU252
 1100 0004 C4B0     		sub	sp, sp, #272
 1101              		.cfi_def_cfa_offset 280
  97:MyNewProject.cpp **** 
 1102              		.loc 11 97 12 view .LVU253
 1103 0006 7B48     		ldr	r0, .L74
 1104 0008 0025     		movs	r5, #0
 1105 000a FFF7FEFF 		bl	_ZN5daisy9DaisySeed4InitEb
 1106              	.LVL70:
 100:MyNewProject.cpp **** 
 1107              		.loc 11 100 5 is_stmt 1 view .LVU254
 1108              	.LBB250:
 1109              	.LBI250:
 122:../../libDaisy//src/daisy_seed.h ****     }
ARM GAS  C:\Users\vngel\AppData\Local\Temp\ccf1b4Zx.s 			page 39


 123:../../libDaisy//src/daisy_seed.h **** 
 124:../../libDaisy//src/daisy_seed.h ****     /** Start the logging session. Optionally wait for terminal connection before proceeding.
 125:../../libDaisy//src/daisy_seed.h ****     */
 126:../../libDaisy//src/daisy_seed.h ****     static void StartLog(bool wait_for_pc = false)
 1110              		.loc 6 126 17 view .LVU255
 1111              	.LBB251:
 127:../../libDaisy//src/daisy_seed.h ****     {
 128:../../libDaisy//src/daisy_seed.h ****         Log::StartLog(wait_for_pc);
 1112              		.loc 6 128 9 view .LVU256
 1113              		.loc 6 128 22 is_stmt 0 view .LVU257
 1114 000e 0020     		movs	r0, #0
 1115 0010 FFF7FEFF 		bl	_ZN5daisy6LoggerILNS_17LoggerDestinationE1EE8StartLogEb
 1116              	.LVL71:
 1117              		.loc 6 128 22 view .LVU258
 1118              	.LBE251:
 1119              	.LBE250:
 103:MyNewProject.cpp ****     // Init tap temp Button to D25, pin 32
 1120              		.loc 11 103 5 is_stmt 1 view .LVU259
 103:MyNewProject.cpp ****     // Init tap temp Button to D25, pin 32
 1121              		.loc 11 103 19 is_stmt 0 view .LVU260
 1122 0014 1C20     		movs	r0, #28
 1123 0016 FFF7FEFF 		bl	_ZN5daisy9DaisySeed6GetPinEh
 1124              	.LVL72:
 1125 001a 0346     		mov	r3, r0	@ movhi
 1126 001c 9FED760A 		vldr.32	s0, .L74+4
 1127              	.LBB252:
 1128              	.LBB253:
  61:../../DaisySP//Source/Dynamics/crossfade.h ****     /** Sets current curve applied to CrossFade 
  62:../../DaisySP//Source/Dynamics/crossfade.h ****     Expected input: See [Curve Options](##curve-options)
  63:../../DaisySP//Source/Dynamics/crossfade.h ****     */
  64:../../DaisySP//Source/Dynamics/crossfade.h ****     inline void SetCurve(uint8_t curve) { curve_ = curve; }
 1129              		.loc 2 64 50 view .LVU261
 1130 0020 4FF00108 		mov	r8, #1
 1131              	.LBE253:
 1132              	.LBE252:
 103:MyNewProject.cpp ****     // Init tap temp Button to D25, pin 32
 1133              		.loc 11 103 19 view .LVU262
 1134 0024 ADF80C30 		strh	r3, [sp, #12]	@ movhi
 1135 0028 0227     		movs	r7, #2
 1136 002a 0399     		ldr	r1, [sp, #12]
 1137 002c 4FF00309 		mov	r9, #3
 1138 0030 7248     		ldr	r0, .L74+8
 132:MyNewProject.cpp ****     hw.adc.Init(configs,3);
 1139              		.loc 11 132 68 view .LVU263
 1140 0032 08AE     		add	r6, sp, #32
 103:MyNewProject.cpp ****     // Init tap temp Button to D25, pin 32
 1141              		.loc 11 103 19 view .LVU264
 1142 0034 FFF7FEFF 		bl	_ZN5daisy6Switch4InitE12dsy_gpio_pinf
 1143              	.LVL73:
 105:MyNewProject.cpp ****     // Init the head on/off buttons
 1144              		.loc 11 105 5 is_stmt 1 view .LVU265
 105:MyNewProject.cpp ****     // Init the head on/off buttons
 1145              		.loc 11 105 22 is_stmt 0 view .LVU266
 1146 0038 1920     		movs	r0, #25
 1147 003a FFF7FEFF 		bl	_ZN5daisy9DaisySeed6GetPinEh
 1148              	.LVL74:
 1149 003e 0346     		mov	r3, r0	@ movhi
ARM GAS  C:\Users\vngel\AppData\Local\Temp\ccf1b4Zx.s 			page 40


 1150 0040 9FED6D0A 		vldr.32	s0, .L74+4
 132:MyNewProject.cpp ****     hw.adc.Init(configs,3);
 1151              		.loc 11 132 68 view .LVU267
 1152 0044 0DF1DC0A 		add	r10, sp, #220
 105:MyNewProject.cpp ****     // Init the head on/off buttons
 1153              		.loc 11 105 22 view .LVU268
 1154 0048 ADF81030 		strh	r3, [sp, #16]	@ movhi
 137:MyNewProject.cpp **** 
 1155              		.loc 11 137 22 view .LVU269
 1156 004c 2FAC     		add	r4, sp, #188
 105:MyNewProject.cpp ****     // Init the head on/off buttons
 1157              		.loc 11 105 22 view .LVU270
 1158 004e 6C48     		ldr	r0, .L74+12
 1159 0050 0499     		ldr	r1, [sp, #16]
 1160 0052 FFF7FEFF 		bl	_ZN5daisy6Switch4InitE12dsy_gpio_pinf
 1161              	.LVL75:
 107:MyNewProject.cpp **** 
 1162              		.loc 11 107 5 is_stmt 1 view .LVU271
 107:MyNewProject.cpp **** 
 1163              		.loc 11 107 20 is_stmt 0 view .LVU272
 1164 0056 FFF7FEFF 		bl	_Z15InitHeadButtonsv
 1165              	.LVL76:
 111:MyNewProject.cpp ****     hw.SetAudioSampleRate(SaiHandle::Config::SampleRate::SAI_48KHZ);
 1166              		.loc 11 111 5 is_stmt 1 view .LVU273
 111:MyNewProject.cpp ****     hw.SetAudioSampleRate(SaiHandle::Config::SampleRate::SAI_48KHZ);
 1167              		.loc 11 111 25 is_stmt 0 view .LVU274
 1168 005a 0421     		movs	r1, #4
 1169 005c 6548     		ldr	r0, .L74
 1170 005e FFF7FEFF 		bl	_ZN5daisy9DaisySeed17SetAudioBlockSizeEj
 1171              	.LVL77:
 112:MyNewProject.cpp **** 
 1172              		.loc 11 112 5 is_stmt 1 view .LVU275
 112:MyNewProject.cpp **** 
 1173              		.loc 11 112 26 is_stmt 0 view .LVU276
 1174 0062 0321     		movs	r1, #3
 1175 0064 6348     		ldr	r0, .L74
 1176 0066 FFF7FEFF 		bl	_ZN5daisy9DaisySeed18SetAudioSampleRateENS_9SaiHandle6Config10SampleRateE
 1177              	.LVL78:
 115:MyNewProject.cpp ****     // Sets crossfade to maintain constant power, which will maintain a constant volume as we go fr
 1178              		.loc 11 115 5 is_stmt 1 view .LVU277
 1179              	.LBB255:
 1180              	.LBI255:
  51:../../DaisySP//Source/Dynamics/crossfade.h ****     /** processes CrossFade and returns single sample
 1181              		.loc 2 51 17 view .LVU278
 1182              	.LBE255:
  51:../../DaisySP//Source/Dynamics/crossfade.h ****     /** processes CrossFade and returns single sample
 1183              		.loc 2 51 26 view .LVU279
 1184              	.LBB260:
 1185              	.LBB256:
 1186              	.LBI256:
  43:../../DaisySP//Source/Dynamics/crossfade.h ****     {
 1187              		.loc 2 43 17 view .LVU280
 1188              	.LBB257:
  45:../../DaisySP//Source/Dynamics/crossfade.h ****         curve_ = curve < CROSSFADE_LAST ? curve : CROSSFADE_LIN;
 1189              		.loc 2 45 9 view .LVU281
  45:../../DaisySP//Source/Dynamics/crossfade.h ****         curve_ = curve < CROSSFADE_LAST ? curve : CROSSFADE_LIN;
 1190              		.loc 2 45 16 is_stmt 0 view .LVU282
ARM GAS  C:\Users\vngel\AppData\Local\Temp\ccf1b4Zx.s 			page 41


 1191 006a 664B     		ldr	r3, .L74+16
 1192 006c 4FF07C52 		mov	r2, #1056964608
 1193              	.LBE257:
 1194              	.LBE256:
 1195              	.LBE260:
 120:MyNewProject.cpp **** 
 1196              		.loc 11 120 18 view .LVU283
 1197 0070 6549     		ldr	r1, .L74+20
 1198 0072 6048     		ldr	r0, .L74
 1199              	.LBB261:
 1200              	.LBB259:
 1201              	.LBB258:
  45:../../DaisySP//Source/Dynamics/crossfade.h ****         curve_ = curve < CROSSFADE_LAST ? curve : CROSSFADE_LIN;
 1202              		.loc 2 45 16 view .LVU284
 1203 0074 1A60     		str	r2, [r3]	@ float
  46:../../DaisySP//Source/Dynamics/crossfade.h ****     }
 1204              		.loc 2 46 9 is_stmt 1 view .LVU285
 1205              	.LVL79:
  46:../../DaisySP//Source/Dynamics/crossfade.h ****     }
 1206              		.loc 2 46 9 is_stmt 0 view .LVU286
 1207              	.LBE258:
 1208              	.LBE259:
 1209              	.LBE261:
 117:MyNewProject.cpp **** 
 1210              		.loc 11 117 5 is_stmt 1 view .LVU287
 1211              	.LBB262:
 1212              	.LBI252:
 1213              		.loc 2 64 17 view .LVU288
 1214              	.LBB254:
 1215              		.loc 2 64 43 view .LVU289
 1216              		.loc 2 64 50 is_stmt 0 view .LVU290
 1217 0076 83F80480 		strb	r8, [r3, #4]
 1218              	.LVL80:
 1219              		.loc 2 64 50 view .LVU291
 1220              	.LBE254:
 1221              	.LBE262:
 120:MyNewProject.cpp **** 
 1222              		.loc 11 120 5 is_stmt 1 view .LVU292
 120:MyNewProject.cpp **** 
 1223              		.loc 11 120 18 is_stmt 0 view .LVU293
 1224 007a FFF7FEFF 		bl	_ZN5daisy9DaisySeed10StartAudioEPFvPKPKfPPfjE
 1225              	.LVL81:
 124:MyNewProject.cpp ****     fbkConfig.InitSingle(A0);
 1226              		.loc 11 124 5 is_stmt 1 view .LVU294
 125:MyNewProject.cpp ****     AdcChannelConfig toneConfig;
 1227              		.loc 11 125 5 view .LVU295
 1228              	.LBB263:
 1229              	.LBI263:
 1230              		.file 16 "../../libDaisy//src/daisy_core.h"
   1:../../libDaisy//src/daisy_core.h **** #pragma once
   2:../../libDaisy//src/daisy_core.h **** #ifndef DSY_CORE_HW_H
   3:../../libDaisy//src/daisy_core.h **** #define DSY_CORE_HW_H /**< & */
   4:../../libDaisy//src/daisy_core.h **** #include <stdint.h>
   5:../../libDaisy//src/daisy_core.h **** #include <stdlib.h>
   6:../../libDaisy//src/daisy_core.h **** 
   7:../../libDaisy//src/daisy_core.h **** #if defined(_MSC_VER)
   8:../../libDaisy//src/daisy_core.h **** #define FORCE_INLINE __forceinline /**< & */
ARM GAS  C:\Users\vngel\AppData\Local\Temp\ccf1b4Zx.s 			page 42


   9:../../libDaisy//src/daisy_core.h **** #elif defined(__clang__)
  10:../../libDaisy//src/daisy_core.h **** #define FORCE_INLINE inline __attribute__((always_inline)) /**< & */
  11:../../libDaisy//src/daisy_core.h **** #pragma clang diagnostic ignored "-Wduplicate-decl-specifier"
  12:../../libDaisy//src/daisy_core.h **** #elif defined(__GNUC__)
  13:../../libDaisy//src/daisy_core.h **** #define FORCE_INLINE inline __attribute__((always_inline)) /**< & */
  14:../../libDaisy//src/daisy_core.h **** #else
  15:../../libDaisy//src/daisy_core.h **** #error unknown compiler
  16:../../libDaisy//src/daisy_core.h **** #endif
  17:../../libDaisy//src/daisy_core.h **** 
  18:../../libDaisy//src/daisy_core.h **** /** @addtogroup utility
  19:../../libDaisy//src/daisy_core.h ****     @{
  20:../../libDaisy//src/daisy_core.h **** */
  21:../../libDaisy//src/daisy_core.h **** 
  22:../../libDaisy//src/daisy_core.h **** /** Macro for area of memory that is configured as cacheless
  23:../../libDaisy//src/daisy_core.h **** This should be used primarily for DMA buffers, and the like.
  24:../../libDaisy//src/daisy_core.h **** */
  25:../../libDaisy//src/daisy_core.h **** #define DMA_BUFFER_MEM_SECTION __attribute__((section(".sram1_bss")))
  26:../../libDaisy//src/daisy_core.h **** /** 
  27:../../libDaisy//src/daisy_core.h **** THE DTCM RAM section is also non-cached. However, is not suitable 
  28:../../libDaisy//src/daisy_core.h **** for DMA transfers. Performance is on par with internal SRAM w/ 
  29:../../libDaisy//src/daisy_core.h **** cache enabled.
  30:../../libDaisy//src/daisy_core.h **** */
  31:../../libDaisy//src/daisy_core.h **** #define DTCM_MEM_SECTION __attribute__((section(".dtcmram_bss")))
  32:../../libDaisy//src/daisy_core.h **** 
  33:../../libDaisy//src/daisy_core.h **** #define FBIPMAX 0.999985f             /**< close to 1.0f-LSB at 16 bit */
  34:../../libDaisy//src/daisy_core.h **** #define FBIPMIN (-FBIPMAX)            /**< - (1 - LSB) */
  35:../../libDaisy//src/daisy_core.h **** #define U82F_SCALE 0.0078740f         /**< 1 / 127 */
  36:../../libDaisy//src/daisy_core.h **** #define F2U8_SCALE 127.0f             /**< 128 - 1 */
  37:../../libDaisy//src/daisy_core.h **** #define S82F_SCALE 0.0078125f         /**< 1 / (2**7) */
  38:../../libDaisy//src/daisy_core.h **** #define F2S8_SCALE 127.0f             /**< (2 ** 7) - 1 */
  39:../../libDaisy//src/daisy_core.h **** #define S162F_SCALE 3.0517578125e-05f /**< 1 / (2** 15) */
  40:../../libDaisy//src/daisy_core.h **** #define F2S16_SCALE 32767.0f          /**< (2 ** 15) - 1 */
  41:../../libDaisy//src/daisy_core.h **** #define F2S24_SCALE 8388608.0f        /**< 2 ** 23 */
  42:../../libDaisy//src/daisy_core.h **** #define S242F_SCALE 1.192092896e-07f  /**< 1 / (2 ** 23) */
  43:../../libDaisy//src/daisy_core.h **** #define S24SIGN 0x800000              /**< 2 ** 23 */
  44:../../libDaisy//src/daisy_core.h **** #define S322F_SCALE 4.6566129e-10f    /**< 1 / (2** 31) */
  45:../../libDaisy//src/daisy_core.h **** #define F2S32_SCALE 2147483647.f      /**< (2 ** 31) - 1 */
  46:../../libDaisy//src/daisy_core.h **** 
  47:../../libDaisy//src/daisy_core.h **** 
  48:../../libDaisy//src/daisy_core.h **** /** shorthand macro for simplifying the reading of the left 
  49:../../libDaisy//src/daisy_core.h ****  *  channel of a non-interleaved output buffer named out */
  50:../../libDaisy//src/daisy_core.h **** #define OUT_L out[0]
  51:../../libDaisy//src/daisy_core.h **** 
  52:../../libDaisy//src/daisy_core.h **** /** shorthand macro for simplifying the reading of the right 
  53:../../libDaisy//src/daisy_core.h ****  *  channel of a non-interleaved output buffer named out */
  54:../../libDaisy//src/daisy_core.h **** #define OUT_R out[1]
  55:../../libDaisy//src/daisy_core.h **** 
  56:../../libDaisy//src/daisy_core.h **** /** shorthand macro for simplifying the reading of the left 
  57:../../libDaisy//src/daisy_core.h ****  *  channel of a non-interleaved input buffer named in */
  58:../../libDaisy//src/daisy_core.h **** #define IN_L in[0]
  59:../../libDaisy//src/daisy_core.h **** 
  60:../../libDaisy//src/daisy_core.h **** /** shorthand macro for simplifying the reading of the right 
  61:../../libDaisy//src/daisy_core.h ****  *  channel of a non-interleaved input buffer named in */
  62:../../libDaisy//src/daisy_core.h **** #define IN_R in[1]
  63:../../libDaisy//src/daisy_core.h **** 
  64:../../libDaisy//src/daisy_core.h **** /** 
  65:../../libDaisy//src/daisy_core.h ****     Computes cube.
ARM GAS  C:\Users\vngel\AppData\Local\Temp\ccf1b4Zx.s 			page 43


  66:../../libDaisy//src/daisy_core.h ****     \param x Number to be cubed
  67:../../libDaisy//src/daisy_core.h ****     \return x ^ 3
  68:../../libDaisy//src/daisy_core.h **** */
  69:../../libDaisy//src/daisy_core.h **** FORCE_INLINE float cube(float x)
  70:../../libDaisy//src/daisy_core.h **** {
  71:../../libDaisy//src/daisy_core.h ****     return (x * x) * x;
  72:../../libDaisy//src/daisy_core.h **** }
  73:../../libDaisy//src/daisy_core.h **** 
  74:../../libDaisy//src/daisy_core.h **** /** 
  75:../../libDaisy//src/daisy_core.h ****     Converts unsigned 8-bit to float
  76:../../libDaisy//src/daisy_core.h ****     \param x Number to be scaled.
  77:../../libDaisy//src/daisy_core.h ****     \return Scaled number.
  78:../../libDaisy//src/daisy_core.h **** */
  79:../../libDaisy//src/daisy_core.h **** FORCE_INLINE float u82f(uint8_t x)
  80:../../libDaisy//src/daisy_core.h **** {
  81:../../libDaisy//src/daisy_core.h ****     return ((float)x - 127.f) * U82F_SCALE;
  82:../../libDaisy//src/daisy_core.h **** }
  83:../../libDaisy//src/daisy_core.h **** 
  84:../../libDaisy//src/daisy_core.h **** /**
  85:../../libDaisy//src/daisy_core.h ****     Converts float to unsigned 8-bit
  86:../../libDaisy//src/daisy_core.h **** */
  87:../../libDaisy//src/daisy_core.h **** FORCE_INLINE uint8_t f2u8(float x)
  88:../../libDaisy//src/daisy_core.h **** {
  89:../../libDaisy//src/daisy_core.h ****     x = x <= FBIPMIN ? FBIPMIN : x;
  90:../../libDaisy//src/daisy_core.h ****     x = x >= FBIPMAX ? FBIPMAX : x;
  91:../../libDaisy//src/daisy_core.h ****     return (uint8_t)((x * F2U8_SCALE) + F2U8_SCALE);
  92:../../libDaisy//src/daisy_core.h **** }
  93:../../libDaisy//src/daisy_core.h **** 
  94:../../libDaisy//src/daisy_core.h **** 
  95:../../libDaisy//src/daisy_core.h **** /** 
  96:../../libDaisy//src/daisy_core.h ****     Converts Signed 8-bit to float
  97:../../libDaisy//src/daisy_core.h ****     \param x Number to be scaled.
  98:../../libDaisy//src/daisy_core.h ****     \return Scaled number.
  99:../../libDaisy//src/daisy_core.h **** */
 100:../../libDaisy//src/daisy_core.h **** FORCE_INLINE float s82f(int8_t x)
 101:../../libDaisy//src/daisy_core.h **** {
 102:../../libDaisy//src/daisy_core.h ****     return (float)x * S82F_SCALE;
 103:../../libDaisy//src/daisy_core.h **** }
 104:../../libDaisy//src/daisy_core.h **** 
 105:../../libDaisy//src/daisy_core.h **** /**
 106:../../libDaisy//src/daisy_core.h ****     Converts float to Signed 8-bit
 107:../../libDaisy//src/daisy_core.h **** */
 108:../../libDaisy//src/daisy_core.h **** FORCE_INLINE int8_t f2s8(float x)
 109:../../libDaisy//src/daisy_core.h **** {
 110:../../libDaisy//src/daisy_core.h ****     x = x <= FBIPMIN ? FBIPMIN : x;
 111:../../libDaisy//src/daisy_core.h ****     x = x >= FBIPMAX ? FBIPMAX : x;
 112:../../libDaisy//src/daisy_core.h ****     return (int32_t)(x * F2S8_SCALE);
 113:../../libDaisy//src/daisy_core.h **** }
 114:../../libDaisy//src/daisy_core.h **** 
 115:../../libDaisy//src/daisy_core.h **** /** 
 116:../../libDaisy//src/daisy_core.h ****     Converts Signed 16-bit to float
 117:../../libDaisy//src/daisy_core.h ****     \param x Number to be scaled.
 118:../../libDaisy//src/daisy_core.h ****     \return Scaled number.
 119:../../libDaisy//src/daisy_core.h **** */
 120:../../libDaisy//src/daisy_core.h **** FORCE_INLINE float s162f(int16_t x)
 121:../../libDaisy//src/daisy_core.h **** {
 122:../../libDaisy//src/daisy_core.h ****     return (float)x * S162F_SCALE;
ARM GAS  C:\Users\vngel\AppData\Local\Temp\ccf1b4Zx.s 			page 44


 123:../../libDaisy//src/daisy_core.h **** }
 124:../../libDaisy//src/daisy_core.h **** 
 125:../../libDaisy//src/daisy_core.h **** /**
 126:../../libDaisy//src/daisy_core.h ****     Converts float to Signed 16-bit
 127:../../libDaisy//src/daisy_core.h **** */
 128:../../libDaisy//src/daisy_core.h **** FORCE_INLINE int16_t f2s16(float x)
 129:../../libDaisy//src/daisy_core.h **** {
 130:../../libDaisy//src/daisy_core.h ****     x = x <= FBIPMIN ? FBIPMIN : x;
 131:../../libDaisy//src/daisy_core.h ****     x = x >= FBIPMAX ? FBIPMAX : x;
 132:../../libDaisy//src/daisy_core.h ****     return (int32_t)(x * F2S16_SCALE);
 133:../../libDaisy//src/daisy_core.h **** }
 134:../../libDaisy//src/daisy_core.h **** 
 135:../../libDaisy//src/daisy_core.h **** /**
 136:../../libDaisy//src/daisy_core.h ****     Converts Signed 24-bit to float
 137:../../libDaisy//src/daisy_core.h ****  */
 138:../../libDaisy//src/daisy_core.h **** FORCE_INLINE float s242f(int32_t x)
 139:../../libDaisy//src/daisy_core.h **** {
 140:../../libDaisy//src/daisy_core.h ****     x = (x ^ S24SIGN) - S24SIGN; //sign extend aka ((x<<8)>>8)
 141:../../libDaisy//src/daisy_core.h ****     return (float)x * S242F_SCALE;
 142:../../libDaisy//src/daisy_core.h **** }
 143:../../libDaisy//src/daisy_core.h **** /**
 144:../../libDaisy//src/daisy_core.h ****     Converts float to Signed 24-bit
 145:../../libDaisy//src/daisy_core.h ****  */
 146:../../libDaisy//src/daisy_core.h **** FORCE_INLINE int32_t f2s24(float x)
 147:../../libDaisy//src/daisy_core.h **** {
 148:../../libDaisy//src/daisy_core.h ****     x = x <= FBIPMIN ? FBIPMIN : x;
 149:../../libDaisy//src/daisy_core.h ****     x = x >= FBIPMAX ? FBIPMAX : x;
 150:../../libDaisy//src/daisy_core.h ****     return (int32_t)(x * F2S24_SCALE);
 151:../../libDaisy//src/daisy_core.h **** }
 152:../../libDaisy//src/daisy_core.h **** 
 153:../../libDaisy//src/daisy_core.h **** /**
 154:../../libDaisy//src/daisy_core.h ****     Converts Signed 32-bit to float
 155:../../libDaisy//src/daisy_core.h ****  */
 156:../../libDaisy//src/daisy_core.h **** FORCE_INLINE float s322f(int32_t x)
 157:../../libDaisy//src/daisy_core.h **** {
 158:../../libDaisy//src/daisy_core.h ****     return (float)x * S322F_SCALE;
 159:../../libDaisy//src/daisy_core.h **** }
 160:../../libDaisy//src/daisy_core.h **** /**
 161:../../libDaisy//src/daisy_core.h ****     Converts float to Signed 24-bit
 162:../../libDaisy//src/daisy_core.h ****  */
 163:../../libDaisy//src/daisy_core.h **** FORCE_INLINE int32_t f2s32(float x)
 164:../../libDaisy//src/daisy_core.h **** {
 165:../../libDaisy//src/daisy_core.h ****     x = x <= FBIPMIN ? FBIPMIN : x;
 166:../../libDaisy//src/daisy_core.h ****     x = x >= FBIPMAX ? FBIPMAX : x;
 167:../../libDaisy//src/daisy_core.h ****     return (int32_t)(x * F2S32_SCALE);
 168:../../libDaisy//src/daisy_core.h **** }
 169:../../libDaisy//src/daisy_core.h **** 
 170:../../libDaisy//src/daisy_core.h **** 
 171:../../libDaisy//src/daisy_core.h **** /** Enums and a simple struct for defining a hardware pin on the MCU
 172:../../libDaisy//src/daisy_core.h ****  *  These correlate with the stm32 datasheet, and are used to configure
 173:../../libDaisy//src/daisy_core.h ****  *  the hardware.
 174:../../libDaisy//src/daisy_core.h ****  * 
 175:../../libDaisy//src/daisy_core.h ****  *  This along with the dsy_gpio_pin class should no longer be used.
 176:../../libDaisy//src/daisy_core.h ****  *  They are available for backwards compatability. 
 177:../../libDaisy//src/daisy_core.h ****  * 
 178:../../libDaisy//src/daisy_core.h ****  *  Please use GPIOPort enum and the Pin struct instead.
 179:../../libDaisy//src/daisy_core.h ****  */
ARM GAS  C:\Users\vngel\AppData\Local\Temp\ccf1b4Zx.s 			page 45


 180:../../libDaisy//src/daisy_core.h **** typedef enum
 181:../../libDaisy//src/daisy_core.h **** {
 182:../../libDaisy//src/daisy_core.h ****     DSY_GPIOA, /**< & */
 183:../../libDaisy//src/daisy_core.h ****     DSY_GPIOB, /**< & */
 184:../../libDaisy//src/daisy_core.h ****     DSY_GPIOC, /**< & */
 185:../../libDaisy//src/daisy_core.h ****     DSY_GPIOD, /**< & */
 186:../../libDaisy//src/daisy_core.h ****     DSY_GPIOE, /**< & */
 187:../../libDaisy//src/daisy_core.h ****     DSY_GPIOF, /**< & */
 188:../../libDaisy//src/daisy_core.h ****     DSY_GPIOG, /**< & */
 189:../../libDaisy//src/daisy_core.h ****     DSY_GPIOH, /**< & */
 190:../../libDaisy//src/daisy_core.h ****     DSY_GPIOI, /**< & */
 191:../../libDaisy//src/daisy_core.h ****     DSY_GPIOJ, /**< & */
 192:../../libDaisy//src/daisy_core.h ****     DSY_GPIOK, /**< & */
 193:../../libDaisy//src/daisy_core.h ****     DSY_GPIOX, /** This is a non-existant port for unsupported bits of hardware. */
 194:../../libDaisy//src/daisy_core.h ****     DSY_GPIO_LAST, /** Final enum member */
 195:../../libDaisy//src/daisy_core.h **** } dsy_gpio_port;
 196:../../libDaisy//src/daisy_core.h **** 
 197:../../libDaisy//src/daisy_core.h **** /** Hardware define pins 
 198:../../libDaisy//src/daisy_core.h ****  *  
 199:../../libDaisy//src/daisy_core.h ****  *  The dsy_gpio_pin struct should no longer be used, and is only available for
 200:../../libDaisy//src/daisy_core.h ****  *  backwards compatability.
 201:../../libDaisy//src/daisy_core.h ****  * 
 202:../../libDaisy//src/daisy_core.h ****  *  Please use Pin struct instead.
 203:../../libDaisy//src/daisy_core.h ****  */
 204:../../libDaisy//src/daisy_core.h **** typedef struct
 205:../../libDaisy//src/daisy_core.h **** {
 206:../../libDaisy//src/daisy_core.h ****     dsy_gpio_port port; /**< & */
 207:../../libDaisy//src/daisy_core.h ****     uint8_t       pin;  /**< number 0-15 */
 208:../../libDaisy//src/daisy_core.h **** } dsy_gpio_pin;
 209:../../libDaisy//src/daisy_core.h **** 
 210:../../libDaisy//src/daisy_core.h **** /** Helper for creating pins from port/pin combos easily
 211:../../libDaisy//src/daisy_core.h ****  * 
 212:../../libDaisy//src/daisy_core.h ****  *  The dsy_gpio_pin struct should no longer be used, and is only available for
 213:../../libDaisy//src/daisy_core.h ****  *  backwards compatability.
 214:../../libDaisy//src/daisy_core.h ****  * 
 215:../../libDaisy//src/daisy_core.h ****  *  Please use Pin struct instead.
 216:../../libDaisy//src/daisy_core.h **** */
 217:../../libDaisy//src/daisy_core.h **** FORCE_INLINE dsy_gpio_pin dsy_pin(dsy_gpio_port port, uint8_t pin)
 218:../../libDaisy//src/daisy_core.h **** {
 219:../../libDaisy//src/daisy_core.h ****     dsy_gpio_pin p;
 220:../../libDaisy//src/daisy_core.h ****     p.port = port;
 221:../../libDaisy//src/daisy_core.h ****     p.pin  = pin;
 222:../../libDaisy//src/daisy_core.h ****     return p;
 223:../../libDaisy//src/daisy_core.h **** }
 224:../../libDaisy//src/daisy_core.h **** 
 225:../../libDaisy//src/daisy_core.h **** /** Helper for testing sameness of two dsy_gpio_pins
 226:../../libDaisy//src/daisy_core.h ****  *  \return    1 if same, 0 if different
 227:../../libDaisy//src/daisy_core.h ****  * 
 228:../../libDaisy//src/daisy_core.h ****  *  The dsy_gpio_pin struct should no longer be used, and is only available for
 229:../../libDaisy//src/daisy_core.h ****  *  backwards compatability.
 230:../../libDaisy//src/daisy_core.h ****  * 
 231:../../libDaisy//src/daisy_core.h ****  *  Please use Pin struct instead.
 232:../../libDaisy//src/daisy_core.h ****  */
 233:../../libDaisy//src/daisy_core.h **** FORCE_INLINE uint8_t dsy_pin_cmp(dsy_gpio_pin *a, dsy_gpio_pin *b)
 234:../../libDaisy//src/daisy_core.h **** {
 235:../../libDaisy//src/daisy_core.h ****     return ((a->port == b->port) && (a->pin == b->pin));
 236:../../libDaisy//src/daisy_core.h **** }
ARM GAS  C:\Users\vngel\AppData\Local\Temp\ccf1b4Zx.s 			page 46


 237:../../libDaisy//src/daisy_core.h **** 
 238:../../libDaisy//src/daisy_core.h **** #ifdef __cplusplus
 239:../../libDaisy//src/daisy_core.h **** 
 240:../../libDaisy//src/daisy_core.h **** namespace daisy
 241:../../libDaisy//src/daisy_core.h **** {
 242:../../libDaisy//src/daisy_core.h **** /** @brief GPIO Port names */
 243:../../libDaisy//src/daisy_core.h **** enum GPIOPort
 244:../../libDaisy//src/daisy_core.h **** {
 245:../../libDaisy//src/daisy_core.h ****     PORTA, /**< Port A */
 246:../../libDaisy//src/daisy_core.h ****     PORTB, /**< Port B */
 247:../../libDaisy//src/daisy_core.h ****     PORTC, /**< Port C */
 248:../../libDaisy//src/daisy_core.h ****     PORTD, /**< Port D */
 249:../../libDaisy//src/daisy_core.h ****     PORTE, /**< Port E */
 250:../../libDaisy//src/daisy_core.h ****     PORTF, /**< Port F */
 251:../../libDaisy//src/daisy_core.h ****     PORTG, /**< Port G */
 252:../../libDaisy//src/daisy_core.h ****     PORTH, /**< Port H */
 253:../../libDaisy//src/daisy_core.h ****     PORTI, /**< Port I */
 254:../../libDaisy//src/daisy_core.h ****     PORTJ, /**< Port J */
 255:../../libDaisy//src/daisy_core.h ****     PORTK, /**< Port K */
 256:../../libDaisy//src/daisy_core.h ****     PORTX, /**< Used as a dummy port to signal an invalid pin. */
 257:../../libDaisy//src/daisy_core.h **** };
 258:../../libDaisy//src/daisy_core.h **** 
 259:../../libDaisy//src/daisy_core.h **** /** @brief representation of hardware port/pin combination */
 260:../../libDaisy//src/daisy_core.h **** struct Pin
 261:../../libDaisy//src/daisy_core.h **** {
 262:../../libDaisy//src/daisy_core.h ****     GPIOPort port;
 263:../../libDaisy//src/daisy_core.h ****     uint8_t  pin;
 264:../../libDaisy//src/daisy_core.h **** 
 265:../../libDaisy//src/daisy_core.h ****     /** @brief Constructor creates a valid pin. 
 266:../../libDaisy//src/daisy_core.h ****      *  @param pt GPIOPort between PA, and PK corresponding to STM32 Port.
 267:../../libDaisy//src/daisy_core.h ****      *  @param pn pin number in range of 0-15
 268:../../libDaisy//src/daisy_core.h ****     */
 269:../../libDaisy//src/daisy_core.h ****     constexpr Pin(const GPIOPort pt, const uint8_t pn) : port(pt), pin(pn) {}
 270:../../libDaisy//src/daisy_core.h **** 
 271:../../libDaisy//src/daisy_core.h ****     /** @brief Basic Constructor creates an invalid Pin object */
 272:../../libDaisy//src/daisy_core.h ****     constexpr Pin() : port(PORTX), pin(255) {}
 273:../../libDaisy//src/daisy_core.h **** 
 274:../../libDaisy//src/daisy_core.h ****     /** @brief checks validity of a Pin 
 275:../../libDaisy//src/daisy_core.h ****      *  @retval returns true if the port is a valid hardware pin, otherwise false.
 276:../../libDaisy//src/daisy_core.h ****     */
 277:../../libDaisy//src/daisy_core.h ****     constexpr bool IsValid() const { return port != PORTX && pin < 16; }
 278:../../libDaisy//src/daisy_core.h **** 
 279:../../libDaisy//src/daisy_core.h ****     /** @brief comparison operator for checking equality between Pin objects */
 280:../../libDaisy//src/daisy_core.h ****     constexpr bool operator==(const Pin &rhs) const
 281:../../libDaisy//src/daisy_core.h ****     {
 282:../../libDaisy//src/daisy_core.h ****         return (rhs.port == port) && (rhs.pin == pin);
 283:../../libDaisy//src/daisy_core.h ****     }
 284:../../libDaisy//src/daisy_core.h **** 
 285:../../libDaisy//src/daisy_core.h ****     /** @brief comparison operator for checking inequality between Pin objects */
 286:../../libDaisy//src/daisy_core.h ****     constexpr bool operator!=(const Pin &rhs) const { return !operator==(rhs); }
 287:../../libDaisy//src/daisy_core.h **** 
 288:../../libDaisy//src/daisy_core.h ****     /** @brief conversion operation for converting to the old-style representation
 289:../../libDaisy//src/daisy_core.h ****      *         of a pin.
 290:../../libDaisy//src/daisy_core.h ****      * 
 291:../../libDaisy//src/daisy_core.h ****      *  This allows the new Pin type to be used in place of the older, dsy_gpio_pin
 292:../../libDaisy//src/daisy_core.h ****      *  type.
 293:../../libDaisy//src/daisy_core.h ****      */
ARM GAS  C:\Users\vngel\AppData\Local\Temp\ccf1b4Zx.s 			page 47


 294:../../libDaisy//src/daisy_core.h ****     operator dsy_gpio_pin() const
 1231              		.loc 16 294 5 view .LVU296
 1232              	.LBE263:
 295:../../libDaisy//src/daisy_core.h ****     {
 296:../../libDaisy//src/daisy_core.h ****         return dsy_pin(static_cast<dsy_gpio_port>(port), pin);
 1233              		.loc 16 296 9 view .LVU297
 1234              	.LBB265:
 1235              	.LBB264:
 1236              	.LBI264:
 217:../../libDaisy//src/daisy_core.h **** {
 1237              		.loc 16 217 27 view .LVU298
 1238              	.LBE264:
 1239              	.LBE265:
 219:../../libDaisy//src/daisy_core.h ****     p.port = port;
 1240              		.loc 16 219 5 view .LVU299
 220:../../libDaisy//src/daisy_core.h ****     p.pin  = pin;
 1241              		.loc 16 220 5 view .LVU300
 221:../../libDaisy//src/daisy_core.h ****     return p;
 1242              		.loc 16 221 5 view .LVU301
 222:../../libDaisy//src/daisy_core.h **** }
 1243              		.loc 16 222 5 view .LVU302
 222:../../libDaisy//src/daisy_core.h **** }
 1244              		.loc 16 222 5 is_stmt 0 view .LVU303
 1245 007e 8DF81470 		strb	r7, [sp, #20]
 125:MyNewProject.cpp ****     AdcChannelConfig toneConfig;
 1246              		.loc 11 125 25 view .LVU304
 1247 0082 08A8     		add	r0, sp, #32
 1248 0084 8DF81550 		strb	r5, [sp, #21]
 1249              	.LVL82:
 125:MyNewProject.cpp ****     AdcChannelConfig toneConfig;
 1250              		.loc 11 125 25 view .LVU305
 1251 0088 0599     		ldr	r1, [sp, #20]
 1252 008a FFF7FEFF 		bl	_ZN5daisy16AdcChannelConfig10InitSingleE12dsy_gpio_pin
 1253              	.LVL83:
 126:MyNewProject.cpp ****     toneConfig.InitSingle(A1);
 1254              		.loc 11 126 5 is_stmt 1 view .LVU306
 127:MyNewProject.cpp ****     AdcChannelConfig timeConfig;
 1255              		.loc 11 127 5 view .LVU307
 1256              	.LBB266:
 1257              	.LBI266:
 294:../../libDaisy//src/daisy_core.h ****     {
 1258              		.loc 16 294 5 view .LVU308
 1259              	.LBE266:
 1260              		.loc 16 296 9 view .LVU309
 1261              	.LBB268:
 1262              	.LBB267:
 1263              	.LBI267:
 217:../../libDaisy//src/daisy_core.h **** {
 1264              		.loc 16 217 27 view .LVU310
 1265              	.LBE267:
 1266              	.LBE268:
 219:../../libDaisy//src/daisy_core.h ****     p.port = port;
 1267              		.loc 16 219 5 view .LVU311
 220:../../libDaisy//src/daisy_core.h ****     p.pin  = pin;
 1268              		.loc 16 220 5 view .LVU312
 221:../../libDaisy//src/daisy_core.h ****     return p;
 1269              		.loc 16 221 5 view .LVU313
ARM GAS  C:\Users\vngel\AppData\Local\Temp\ccf1b4Zx.s 			page 48


 222:../../libDaisy//src/daisy_core.h **** }
 1270              		.loc 16 222 5 view .LVU314
 222:../../libDaisy//src/daisy_core.h **** }
 1271              		.loc 16 222 5 is_stmt 0 view .LVU315
 1272 008e 8DF81850 		strb	r5, [sp, #24]
 1273 0092 8DF81990 		strb	r9, [sp, #25]
 1274              	.LVL84:
 127:MyNewProject.cpp ****     AdcChannelConfig timeConfig;
 1275              		.loc 11 127 26 view .LVU316
 1276 0096 0DA8     		add	r0, sp, #52
 1277 0098 0699     		ldr	r1, [sp, #24]
 1278 009a FFF7FEFF 		bl	_ZN5daisy16AdcChannelConfig10InitSingleE12dsy_gpio_pin
 1279              	.LVL85:
 128:MyNewProject.cpp ****     timeConfig.InitSingle(A2); 
 1280              		.loc 11 128 5 is_stmt 1 view .LVU317
 129:MyNewProject.cpp **** 
 1281              		.loc 11 129 5 view .LVU318
 1282              	.LBB269:
 1283              	.LBI269:
 294:../../libDaisy//src/daisy_core.h ****     {
 1284              		.loc 16 294 5 view .LVU319
 1285              	.LBE269:
 1286              		.loc 16 296 9 view .LVU320
 1287              	.LBB271:
 1288              	.LBB270:
 1289              	.LBI270:
 217:../../libDaisy//src/daisy_core.h **** {
 1290              		.loc 16 217 27 view .LVU321
 1291              	.LBE270:
 1292              	.LBE271:
 219:../../libDaisy//src/daisy_core.h ****     p.port = port;
 1293              		.loc 16 219 5 view .LVU322
 220:../../libDaisy//src/daisy_core.h ****     p.pin  = pin;
 1294              		.loc 16 220 5 view .LVU323
 221:../../libDaisy//src/daisy_core.h ****     return p;
 1295              		.loc 16 221 5 view .LVU324
 222:../../libDaisy//src/daisy_core.h **** }
 1296              		.loc 16 222 5 view .LVU325
 222:../../libDaisy//src/daisy_core.h **** }
 1297              		.loc 16 222 5 is_stmt 0 view .LVU326
 1298 009e 8DF81C80 		strb	r8, [sp, #28]
 1299 00a2 8DF81D80 		strb	r8, [sp, #29]
 1300              	.LVL86:
 129:MyNewProject.cpp **** 
 1301              		.loc 11 129 26 view .LVU327
 1302 00a6 12A8     		add	r0, sp, #72
 1303 00a8 0799     		ldr	r1, [sp, #28]
 1304 00aa FFF7FEFF 		bl	_ZN5daisy16AdcChannelConfig10InitSingleE12dsy_gpio_pin
 1305              	.LVL87:
 132:MyNewProject.cpp ****     hw.adc.Init(configs,3);
 1306              		.loc 11 132 5 is_stmt 1 view .LVU328
 132:MyNewProject.cpp ****     hw.adc.Init(configs,3);
 1307              		.loc 11 132 68 is_stmt 0 view .LVU329
 1308 00ae 0DF1340E 		add	lr, sp, #52
 1309 00b2 0DF1480C 		add	ip, sp, #72
 1310 00b6 0FCE     		ldmia	r6!, {r0, r1, r2, r3}
 1311 00b8 AAE80F00 		stmia	r10!, {r0, r1, r2, r3}
ARM GAS  C:\Users\vngel\AppData\Local\Temp\ccf1b4Zx.s 			page 49


 1312 00bc 3368     		ldr	r3, [r6]
 141:MyNewProject.cpp **** 
 1313              		.loc 11 141 18 view .LVU330
 1314 00be 2FAE     		add	r6, sp, #188
 132:MyNewProject.cpp ****     hw.adc.Init(configs,3);
 1315              		.loc 11 132 68 view .LVU331
 1316 00c0 8AF80030 		strb	r3, [r10]
 1317 00c4 BEE80F00 		ldmia	lr!, {r0, r1, r2, r3}
 1318 00c8 CDF8F930 		str	r3, [sp, #249]	@ unaligned
 1319 00cc 9EF80030 		ldrb	r3, [lr]	@ zero_extendqisi2
 1320 00d0 CDF8ED00 		str	r0, [sp, #237]	@ unaligned
 1321 00d4 CDF8F110 		str	r1, [sp, #241]	@ unaligned
 1322 00d8 CDF8F520 		str	r2, [sp, #245]	@ unaligned
 1323 00dc 8DF8FD30 		strb	r3, [sp, #253]
 1324 00e0 BCE80F00 		ldmia	ip!, {r0, r1, r2, r3}
 1325 00e4 CDF80A31 		str	r3, [sp, #266]	@ unaligned
 1326 00e8 9CF80030 		ldrb	r3, [ip]	@ zero_extendqisi2
 1327 00ec CDF8FE00 		str	r0, [sp, #254]	@ unaligned
 1328 00f0 CDF80211 		str	r1, [sp, #258]	@ unaligned
 133:MyNewProject.cpp **** 
 1329              		.loc 11 133 16 view .LVU332
 1330 00f4 37A9     		add	r1, sp, #220
 1331 00f6 4548     		ldr	r0, .L74+24
 132:MyNewProject.cpp ****     hw.adc.Init(configs,3);
 1332              		.loc 11 132 68 view .LVU333
 1333 00f8 CDF80621 		str	r2, [sp, #262]	@ unaligned
 133:MyNewProject.cpp **** 
 1334              		.loc 11 133 16 view .LVU334
 1335 00fc 4A46     		mov	r2, r9
 132:MyNewProject.cpp ****     hw.adc.Init(configs,3);
 1336              		.loc 11 132 68 view .LVU335
 1337 00fe 8DF80E31 		strb	r3, [sp, #270]
 133:MyNewProject.cpp **** 
 1338              		.loc 11 133 5 is_stmt 1 view .LVU336
 133:MyNewProject.cpp **** 
 1339              		.loc 11 133 16 is_stmt 0 view .LVU337
 1340 0102 0423     		movs	r3, #4
 1341 0104 FFF7FEFF 		bl	_ZN5daisy9AdcHandle4InitEPNS_16AdcChannelConfigEjNS0_12OverSamplingE
 1342              	.LVL88:
 135:MyNewProject.cpp ****     fbk.Init(hw.adc.GetPtr(0),hw.AudioSampleRate());
 1343              		.loc 11 135 5 is_stmt 1 view .LVU338
 1344              	.LBB272:
 1345              	.LBI272:
  21:../../libDaisy//src/hid/ctrl.h ****     /** destructor */
 1346              		.loc 5 21 5 view .LVU339
  21:../../libDaisy//src/hid/ctrl.h ****     /** destructor */
 1347              		.loc 5 21 5 is_stmt 0 view .LVU340
 1348              	.LBE272:
 136:MyNewProject.cpp ****     feedbackKnob.Init(fbk,0.00,MAX_FEEDBACK,Parameter::LINEAR);
 1349              		.loc 11 136 5 is_stmt 1 view .LVU341
 136:MyNewProject.cpp ****     feedbackKnob.Init(fbk,0.00,MAX_FEEDBACK,Parameter::LINEAR);
 1350              		.loc 11 136 13 is_stmt 0 view .LVU342
 1351 0108 2946     		mov	r1, r5
 1352 010a 4048     		ldr	r0, .L74+24
 1353 010c FFF7FEFF 		bl	_ZNK5daisy9AdcHandle6GetPtrEh
 1354              	.LVL89:
 1355 0110 0190     		str	r0, [sp, #4]
ARM GAS  C:\Users\vngel\AppData\Local\Temp\ccf1b4Zx.s 			page 50


 1356 0112 3848     		ldr	r0, .L74
 1357 0114 FFF7FEFF 		bl	_ZN5daisy9DaisySeed15AudioSampleRateEv
 1358              	.LVL90:
 1359 0118 DFED3D0A 		vldr.32	s1, .L74+28
 1360 011c 0199     		ldr	r1, [sp, #4]
 1361 011e 2B46     		mov	r3, r5
 1362 0120 2A46     		mov	r2, r5
 1363 0122 17A8     		add	r0, sp, #92
 1364 0124 FFF7FEFF 		bl	_ZN5daisy13AnalogControl4InitEPtfbbf
 1365              	.LVL91:
 137:MyNewProject.cpp **** 
 1366              		.loc 11 137 5 is_stmt 1 view .LVU343
 137:MyNewProject.cpp **** 
 1367              		.loc 11 137 22 is_stmt 0 view .LVU344
 1368 0128 3A4B     		ldr	r3, .L74+32
 1369 012a 0DF15C0C 		add	ip, sp, #92
 1370 012e 9FED3A0A 		vldr.32	s0, .L74+36
 1371 0132 D3ED000A 		vldr.32	s1, [r3]
 1372 0136 BCE80F00 		ldmia	ip!, {r0, r1, r2, r3}
 1373 013a 0FC4     		stmia	r4!, {r0, r1, r2, r3}
 1374 013c 9CE80F00 		ldm	ip, {r0, r1, r2, r3}
 1375 0140 84E80F00 		stm	r4, {r0, r1, r2, r3}
 1376 0144 2A46     		mov	r2, r5
 1377 0146 3548     		ldr	r0, .L74+40
 1378 0148 2FA9     		add	r1, sp, #188
 1379 014a FFF7FEFF 		bl	_ZN5daisy9Parameter4InitENS_13AnalogControlEffNS0_5CurveE
 1380              	.LVL92:
 1381              	.LBB273:
 1382              	.LBI273:
 1383              		.loc 5 23 5 is_stmt 1 view .LVU345
 1384              		.loc 5 23 5 is_stmt 0 view .LVU346
 1385              	.LBE273:
 139:MyNewProject.cpp ****     tne.Init(hw.adc.GetPtr(1),hw.AudioSampleRate());
 1386              		.loc 11 139 5 is_stmt 1 view .LVU347
 1387              	.LBB274:
 1388              	.LBI274:
  21:../../libDaisy//src/hid/ctrl.h ****     /** destructor */
 1389              		.loc 5 21 5 view .LVU348
  21:../../libDaisy//src/hid/ctrl.h ****     /** destructor */
 1390              		.loc 5 21 5 is_stmt 0 view .LVU349
 1391              	.LBE274:
 140:MyNewProject.cpp ****     toneKnob.Init(tne,-1.f,1.f,Parameter::LINEAR);
 1392              		.loc 11 140 5 is_stmt 1 view .LVU350
 140:MyNewProject.cpp ****     toneKnob.Init(tne,-1.f,1.f,Parameter::LINEAR);
 1393              		.loc 11 140 13 is_stmt 0 view .LVU351
 1394 014e 4146     		mov	r1, r8
 1395 0150 2E48     		ldr	r0, .L74+24
 1396 0152 FFF7FEFF 		bl	_ZNK5daisy9AdcHandle6GetPtrEh
 1397              	.LVL93:
 1398 0156 0190     		str	r0, [sp, #4]
 1399 0158 2648     		ldr	r0, .L74
 1400 015a FFF7FEFF 		bl	_ZN5daisy9DaisySeed15AudioSampleRateEv
 1401              	.LVL94:
 1402 015e DFED2C0A 		vldr.32	s1, .L74+28
 1403 0162 0199     		ldr	r1, [sp, #4]
 1404 0164 2B46     		mov	r3, r5
 1405 0166 2A46     		mov	r2, r5
ARM GAS  C:\Users\vngel\AppData\Local\Temp\ccf1b4Zx.s 			page 51


 1406 0168 1FA8     		add	r0, sp, #124
 1407 016a FFF7FEFF 		bl	_ZN5daisy13AnalogControl4InitEPtfbbf
 1408              	.LVL95:
 141:MyNewProject.cpp **** 
 1409              		.loc 11 141 5 is_stmt 1 view .LVU352
 141:MyNewProject.cpp **** 
 1410              		.loc 11 141 18 is_stmt 0 view .LVU353
 1411 016e 0DF17C0C 		add	ip, sp, #124
 1412 0172 F7EE000A 		vmov.f32	s1, #1.0e+0
 1413 0176 BFEE000A 		vmov.f32	s0, #-1.0e+0
 1414 017a BCE80F00 		ldmia	ip!, {r0, r1, r2, r3}
 1415 017e 0FC6     		stmia	r6!, {r0, r1, r2, r3}
 1416 0180 9CE80F00 		ldm	ip, {r0, r1, r2, r3}
 1417 0184 84E80F00 		stm	r4, {r0, r1, r2, r3}
 1418 0188 2A46     		mov	r2, r5
 1419 018a 2548     		ldr	r0, .L74+44
 1420 018c 2FA9     		add	r1, sp, #188
 145:MyNewProject.cpp **** 
 1421              		.loc 11 145 18 view .LVU354
 1422 018e 2FAE     		add	r6, sp, #188
 141:MyNewProject.cpp **** 
 1423              		.loc 11 141 18 view .LVU355
 1424 0190 FFF7FEFF 		bl	_ZN5daisy9Parameter4InitENS_13AnalogControlEffNS0_5CurveE
 1425              	.LVL96:
 1426              	.LBB275:
 1427              	.LBI275:
 1428              		.loc 5 23 5 is_stmt 1 view .LVU356
 1429              		.loc 5 23 5 is_stmt 0 view .LVU357
 1430              	.LBE275:
 143:MyNewProject.cpp ****     time.Init(hw.adc.GetPtr(2),hw.AudioSampleRate());
 1431              		.loc 11 143 5 is_stmt 1 view .LVU358
 1432              	.LBB276:
 1433              	.LBI276:
  21:../../libDaisy//src/hid/ctrl.h ****     /** destructor */
 1434              		.loc 5 21 5 view .LVU359
  21:../../libDaisy//src/hid/ctrl.h ****     /** destructor */
 1435              		.loc 5 21 5 is_stmt 0 view .LVU360
 1436              	.LBE276:
 144:MyNewProject.cpp ****     timeKnob.Init(time,30.f,240.f,Parameter::LINEAR);
 1437              		.loc 11 144 5 is_stmt 1 view .LVU361
 144:MyNewProject.cpp ****     timeKnob.Init(time,30.f,240.f,Parameter::LINEAR);
 1438              		.loc 11 144 14 is_stmt 0 view .LVU362
 1439 0194 3946     		mov	r1, r7
 1440 0196 1D48     		ldr	r0, .L74+24
 1441 0198 FFF7FEFF 		bl	_ZNK5daisy9AdcHandle6GetPtrEh
 1442              	.LVL97:
 1443 019c 0190     		str	r0, [sp, #4]
 1444 019e 1548     		ldr	r0, .L74
 1445 01a0 FFF7FEFF 		bl	_ZN5daisy9DaisySeed15AudioSampleRateEv
 1446              	.LVL98:
 1447 01a4 DFED1A0A 		vldr.32	s1, .L74+28
 1448 01a8 0199     		ldr	r1, [sp, #4]
 1449 01aa 2B46     		mov	r3, r5
 1450 01ac 2A46     		mov	r2, r5
 1451 01ae 27A8     		add	r0, sp, #156
 1452 01b0 FFF7FEFF 		bl	_ZN5daisy13AnalogControl4InitEPtfbbf
 1453              	.LVL99:
ARM GAS  C:\Users\vngel\AppData\Local\Temp\ccf1b4Zx.s 			page 52


 145:MyNewProject.cpp **** 
 1454              		.loc 11 145 5 is_stmt 1 view .LVU363
 145:MyNewProject.cpp **** 
 1455              		.loc 11 145 18 is_stmt 0 view .LVU364
 1456 01b4 0DF19C0C 		add	ip, sp, #156
 1457 01b8 DFED1A0A 		vldr.32	s1, .L74+48
 1458 01bc B3EE0E0A 		vmov.f32	s0, #3.0e+1
 1459 01c0 BCE80F00 		ldmia	ip!, {r0, r1, r2, r3}
 1460 01c4 0FC6     		stmia	r6!, {r0, r1, r2, r3}
 1461 01c6 9CE80F00 		ldm	ip, {r0, r1, r2, r3}
 1462 01ca 84E80F00 		stm	r4, {r0, r1, r2, r3}
 1463 01ce 2A46     		mov	r2, r5
 1464 01d0 2FA9     		add	r1, sp, #188
 1465 01d2 1548     		ldr	r0, .L74+52
 1466 01d4 FFF7FEFF 		bl	_ZN5daisy9Parameter4InitENS_13AnalogControlEffNS0_5CurveE
 1467              	.LVL100:
 1468              	.LBB277:
 1469              	.LBI277:
 1470              		.loc 5 23 5 is_stmt 1 view .LVU365
 1471              		.loc 5 23 5 is_stmt 0 view .LVU366
 1472              	.LBE277:
 152:MyNewProject.cpp ****     hw.adc.Start();
 1473              		.loc 11 152 5 is_stmt 1 view .LVU367
 152:MyNewProject.cpp ****     hw.adc.Start();
 1474              		.loc 11 152 17 is_stmt 0 view .LVU368
 1475 01d8 9FED140A 		vldr.32	s0, .L74+56
 1476 01dc 1448     		ldr	r0, .L74+60
 1477 01de FFF7FEFF 		bl	_ZN7daisysp7Balance4InitEf
 1478              	.LVL101:
 153:MyNewProject.cpp ****     
 1479              		.loc 11 153 5 is_stmt 1 view .LVU369
 153:MyNewProject.cpp ****     
 1480              		.loc 11 153 17 is_stmt 0 view .LVU370
 1481 01e2 0A48     		ldr	r0, .L74+24
 1482 01e4 FFF7FEFF 		bl	_ZN5daisy9AdcHandle5StartEv
 1483              	.LVL102:
 157:MyNewProject.cpp ****   
 1484              		.loc 11 157 5 is_stmt 1 view .LVU371
 157:MyNewProject.cpp ****   
 1485              		.loc 11 157 14 is_stmt 0 view .LVU372
 1486 01e8 FFF7FEFF 		bl	_Z9initDelayv
 1487              	.LVL103:
 1488              	.L72:
 160:MyNewProject.cpp ****     {
 1489              		.loc 11 160 5 is_stmt 1 discriminator 1 view .LVU373
 163:MyNewProject.cpp **** 
 1490              		.loc 11 163 9 discriminator 1 view .LVU374
 163:MyNewProject.cpp **** 
 1491              		.loc 11 163 22 is_stmt 0 discriminator 1 view .LVU375
 1492 01ec 0620     		movs	r0, #6
 1493 01ee FFF7FEFF 		bl	_ZN5daisy6System5DelayEm
 1494              	.LVL104:
 160:MyNewProject.cpp ****     {
 1495              		.loc 11 160 5 is_stmt 1 discriminator 1 view .LVU376
 1496 01f2 FBE7     		b	.L72
 1497              	.L75:
 1498              		.align	2
ARM GAS  C:\Users\vngel\AppData\Local\Temp\ccf1b4Zx.s 			page 53


 1499              	.L74:
 1500 01f4 00000000 		.word	.LANCHOR13
 1501 01f8 00007A44 		.word	1148846080
 1502 01fc 00000000 		.word	.LANCHOR8
 1503 0200 00000000 		.word	.LANCHOR0
 1504 0204 00000000 		.word	.LANCHOR11
 1505 0208 00000000 		.word	_ZL13AudioCallbackPKPKfPPfj
 1506 020c 18000000 		.word	.LANCHOR13+24
 1507 0210 6F12033B 		.word	990057071
 1508 0214 00000000 		.word	.LANCHOR14
 1509 0218 00000000 		.word	0
 1510 021c 00000000 		.word	.LANCHOR3
 1511 0220 00000000 		.word	.LANCHOR5
 1512 0224 00007043 		.word	1131413504
 1513 0228 00000000 		.word	.LANCHOR7
 1514 022c 00803B47 		.word	1195081728
 1515 0230 00000000 		.word	.LANCHOR10
 1516              		.cfi_endproc
 1517              	.LFE4801:
 1519              		.section	.text.startup._GLOBAL__sub_I_delayMems,"ax",%progbits
 1520              		.align	1
 1521              		.p2align 2,,3
 1522              		.syntax unified
 1523              		.thumb
 1524              		.thumb_func
 1525              		.fpu fpv5-d16
 1527              	_GLOBAL__sub_I_delayMems:
 1528              	.LFB5382:
 1529              		.loc 11 227 1 view -0
 1530              		.cfi_startproc
 1531              		@ args = 0, pretend = 0, frame = 0
 1532              		@ frame_needed = 0, uses_anonymous_args = 0
 1533              	.LBB321:
 1534              	.LBI321:
 1535              		.loc 11 227 1 view .LVU378
 1536              	.LVL105:
 1537              	.LBB322:
   9:MyNewProject.cpp **** 
 1538              		.loc 11 9 54 view .LVU379
 1539              	.LBE322:
 1540              	.LBE321:
 1541              		.loc 11 227 1 is_stmt 0 view .LVU380
 1542 0000 70B5     		push	{r4, r5, r6, lr}
 1543              		.cfi_def_cfa_offset 16
 1544              		.cfi_offset 4, -16
 1545              		.cfi_offset 5, -12
 1546              		.cfi_offset 6, -8
 1547              		.cfi_offset 14, -4
 1548              	.LBB369:
 1549              	.LBB367:
   9:MyNewProject.cpp **** 
 1550              		.loc 11 9 43 view .LVU381
 1551 0002 324D     		ldr	r5, .L78
 1552 0004 0020     		movs	r0, #0
 1553 0006 3249     		ldr	r1, .L78+4
 1554              	.LBB323:
 1555              	.LBB324:
ARM GAS  C:\Users\vngel\AppData\Local\Temp\ccf1b4Zx.s 			page 54


 1556              		.file 17 "TapTempo.h"
   1:TapTempo.h    **** /*
   2:TapTempo.h    ****  * Ported from https://github.com/dxinteractive/ArduinoTapTempo/tree/master 
   3:TapTempo.h    ****  * Info from original file below
   4:TapTempo.h    ****  * 
   5:TapTempo.h    ****  * An Arduino library that times consecutive button presses to calculate Beats Per Minute. Corrects
   6:TapTempo.h    ****  * Copyright (c) 2016 Damien Clarke
   7:TapTempo.h    ****  * 
   8:TapTempo.h    ****  * Permission is hereby granted, free of charge, to any person obtaining a copy
   9:TapTempo.h    ****  * of this software and associated documentation files (the "Software"), to deal
  10:TapTempo.h    ****  * in the Software without restriction, including without limitation the rights
  11:TapTempo.h    ****  * to use, copy, modify, merge, publish, distribute, sublicense, and/or sell
  12:TapTempo.h    ****  * copies of the Software, and to permit persons to whom the Software is
  13:TapTempo.h    ****  * furnished to do so, subject to the following conditions:
  14:TapTempo.h    ****  * 
  15:TapTempo.h    ****  * The above copyright notice and this permission notice shall be included in all
  16:TapTempo.h    ****  * copies or substantial portions of the Software.
  17:TapTempo.h    ****  * 
  18:TapTempo.h    ****  * THE SOFTWARE IS PROVIDED "AS IS", WITHOUT WARRANTY OF ANY KIND, EXPRESS OR
  19:TapTempo.h    ****  * IMPLIED, INCLUDING BUT NOT LIMITED TO THE WARRANTIES OF MERCHANTABILITY,
  20:TapTempo.h    ****  * FITNESS FOR A PARTICULAR PURPOSE AND NONINFRINGEMENT. IN NO EVENT SHALL THE
  21:TapTempo.h    ****  * AUTHORS OR COPYRIGHT HOLDERS BE LIABLE FOR ANY CLAIM, DAMAGES OR OTHER
  22:TapTempo.h    ****  * LIABILITY, WHETHER IN AN ACTION OF CONTRACT, TORT OR OTHERWISE, ARISING FROM,
  23:TapTempo.h    ****  * OUT OF OR IN CONNECTION WITH THE SOFTWARE OR THE USE OR OTHER DEALINGS IN THE
  24:TapTempo.h    ****  * SOFTWARE.  
  25:TapTempo.h    ****  */
  26:TapTempo.h    ****  
  27:TapTempo.h    **** #ifndef TAP_TEMPO_H
  28:TapTempo.h    **** #define TAP_TEMPO_H
  29:TapTempo.h    **** #include <math.h>
  30:TapTempo.h    **** #include "daisy_seed.h"
  31:TapTempo.h    **** 
  32:TapTempo.h    **** class TapTempo
 1557              		.loc 17 32 7 view .LVU382
 1558 0008 0026     		movs	r6, #0
 1559              	.LBE324:
 1560              	.LBE323:
   9:MyNewProject.cpp **** 
 1561              		.loc 11 9 43 view .LVU383
 1562 000a 2A46     		mov	r2, r5
  12:MyNewProject.cpp **** static Balance balance;
 1563              		.loc 11 12 24 view .LVU384
 1564 000c 314C     		ldr	r4, .L78+8
   9:MyNewProject.cpp **** 
 1565              		.loc 11 9 43 view .LVU385
 1566 000e FFF7FEFF 		bl	__aeabi_atexit
 1567              	.LVL106:
  11:MyNewProject.cpp **** ToneFilter tone(48000.f);
 1568              		.loc 11 11 8 view .LVU386
 1569 0012 3148     		ldr	r0, .L78+12
 1570 0014 FFF7FEFF 		bl	_ZN6DelayyC1Ev
 1571              	.LVL107:
  12:MyNewProject.cpp **** static Balance balance;
 1572              		.loc 11 12 24 view .LVU387
 1573 0018 9FED300A 		vldr.32	s0, .L78+16
 1574 001c 2046     		mov	r0, r4
 1575 001e FFF7FEFF 		bl	_ZN10ToneFilterC1Ef
ARM GAS  C:\Users\vngel\AppData\Local\Temp\ccf1b4Zx.s 			page 55


 1576              	.LVL108:
  12:MyNewProject.cpp **** static Balance balance;
 1577              		.loc 11 12 12 view .LVU388
 1578 0022 2A46     		mov	r2, r5
 1579 0024 2E49     		ldr	r1, .L78+20
 1580 0026 2046     		mov	r0, r4
 1581 0028 FFF7FEFF 		bl	__aeabi_atexit
 1582              	.LVL109:
 1583              	.LBB330:
 1584              	.LBI330:
  22:../../DaisySP//Source/Dynamics/balance.h ****     ~Balance() {}
 1585              		.loc 1 22 5 is_stmt 1 view .LVU389
  22:../../DaisySP//Source/Dynamics/balance.h ****     ~Balance() {}
 1586              		.loc 1 22 5 is_stmt 0 view .LVU390
 1587              	.LBE330:
  13:MyNewProject.cpp **** TapTempo tapTempo;
 1588              		.loc 11 13 16 view .LVU391
 1589 002c 2A46     		mov	r2, r5
 1590 002e 2D49     		ldr	r1, .L78+24
 1591 0030 2D48     		ldr	r0, .L78+28
 1592              	.LBB331:
 1593              	.LBB325:
 1594              		.loc 17 32 7 view .LVU392
 1595 0032 2E4C     		ldr	r4, .L78+32
 1596              	.LBE325:
 1597              	.LBE331:
  13:MyNewProject.cpp **** TapTempo tapTempo;
 1598              		.loc 11 13 16 view .LVU393
 1599 0034 FFF7FEFF 		bl	__aeabi_atexit
 1600              	.LVL110:
 1601              	.LBB332:
 1602              	.LBI323:
 1603              		.loc 17 32 7 is_stmt 1 view .LVU394
 1604              	.LBB326:
 1605 0038 4FF4FA63 		mov	r3, #2000
 1606 003c 2C4A     		ldr	r2, .L78+36
 1607 003e 2D49     		ldr	r1, .L78+40
 1608 0040 2360     		str	r3, [r4]
 1609 0042 FA23     		movs	r3, #250
 1610 0044 6261     		str	r2, [r4, #20]	@ float
 1611 0046 0322     		movs	r2, #3
 1612 0048 6360     		str	r3, [r4, #4]
 1613 004a 0823     		movs	r3, #8
 1614 004c 2161     		str	r1, [r4, #16]	@ float
 1615 004e E360     		str	r3, [r4, #12]
 1616 0050 4FF4FA73 		mov	r3, #500
 1617 0054 2676     		strb	r6, [r4, #24]
 1618 0056 E661     		str	r6, [r4, #28]
 1619 0058 A260     		str	r2, [r4, #8]
 1620 005a 2662     		str	r6, [r4, #32]
 1621 005c 6362     		str	r3, [r4, #36]
 1622 005e FFF7FEFF 		bl	_ZN5daisy6System6GetNowEv
 1623              	.LVL111:
 1624 0062 0123     		movs	r3, #1
 1625              	.LBE326:
 1626              	.LBE332:
  16:MyNewProject.cpp **** Switch TEMPO_BUTTON;              // The tap tempo button
ARM GAS  C:\Users\vngel\AppData\Local\Temp\ccf1b4Zx.s 			page 56


 1627              		.loc 11 16 8 is_stmt 0 view .LVU395
 1628 0064 2A46     		mov	r2, r5
 1629              	.LBB333:
 1630              	.LBB327:
 1631              		.loc 17 32 7 view .LVU396
 1632 0066 E662     		str	r6, [r4, #44]
 1633 0068 A4F86030 		strh	r3, [r4, #96]	@ movhi
 1634              	.LVL112:
 1635              		.loc 17 32 7 view .LVU397
 1636              	.LBE327:
 1637              	.LBE333:
 1638              	.LBB334:
 1639              	.LBI334:
  41:../../libDaisy//src/hid/switch.h ****     ~Switch() {}
 1640              		.loc 3 41 5 is_stmt 1 view .LVU398
  41:../../libDaisy//src/hid/switch.h ****     ~Switch() {}
 1641              		.loc 3 41 5 is_stmt 0 view .LVU399
 1642              	.LBE334:
 1643              	.LBB335:
 1644              	.LBB328:
 1645              		.loc 17 32 7 view .LVU400
 1646 006c A062     		str	r0, [r4, #40]
 1647              	.LBE328:
 1648              	.LBE335:
  16:MyNewProject.cpp **** Switch TEMPO_BUTTON;              // The tap tempo button
 1649              		.loc 11 16 8 view .LVU401
 1650 006e 2249     		ldr	r1, .L78+44
 1651 0070 2248     		ldr	r0, .L78+48
 1652              	.LBB336:
 1653              	.LBB329:
 1654              		.loc 17 32 7 view .LVU402
 1655 0072 C4E91666 		strd	r6, r6, [r4, #88]
 1656              	.LBE329:
 1657              	.LBE336:
  16:MyNewProject.cpp **** Switch TEMPO_BUTTON;              // The tap tempo button
 1658              		.loc 11 16 8 view .LVU403
 1659 0076 FFF7FEFF 		bl	__aeabi_atexit
 1660              	.LVL113:
 1661              	.LBB337:
 1662              	.LBI337:
  41:../../libDaisy//src/hid/switch.h ****     ~Switch() {}
 1663              		.loc 3 41 5 is_stmt 1 view .LVU404
  41:../../libDaisy//src/hid/switch.h ****     ~Switch() {}
 1664              		.loc 3 41 5 is_stmt 0 view .LVU405
 1665              	.LBE337:
  17:MyNewProject.cpp **** Switch headSwitches[4];           // One switch for each head
 1666              		.loc 11 17 8 view .LVU406
 1667 007a 2A46     		mov	r2, r5
 1668 007c 1E49     		ldr	r1, .L78+44
 1669 007e 2048     		ldr	r0, .L78+52
 1670 0080 FFF7FEFF 		bl	__aeabi_atexit
 1671              	.LVL114:
  18:MyNewProject.cpp **** static DaisySeed hw;              // The daisy seed harfware
 1672              		.loc 11 18 22 is_stmt 1 view .LVU407
  18:MyNewProject.cpp **** static DaisySeed hw;              // The daisy seed harfware
 1673              		.loc 11 18 8 is_stmt 0 view .LVU408
 1674 0084 2A46     		mov	r2, r5
ARM GAS  C:\Users\vngel\AppData\Local\Temp\ccf1b4Zx.s 			page 57


 1675 0086 1F49     		ldr	r1, .L78+56
 1676 0088 3046     		mov	r0, r6
 1677 008a FFF7FEFF 		bl	__aeabi_atexit
 1678              	.LVL115:
 1679              	.LBB338:
 1680              	.LBI338:
  21:../../libDaisy//src/daisy_seed.h ****     ~DaisySeed() {}
 1681              		.loc 6 21 5 is_stmt 1 view .LVU409
 1682              	.LBB339:
 1683              	.LBB340:
 1684              	.LBI340:
 1685              		.file 18 "../../libDaisy//src/per/qspi.h"
   1:../../libDaisy//src/per/qspi.h **** #ifndef DSY_QSPI
   2:../../libDaisy//src/per/qspi.h **** #define DSY_QSPI /**< Macro */
   3:../../libDaisy//src/per/qspi.h **** 
   4:../../libDaisy//src/per/qspi.h **** #ifndef UNIT_TEST // for unit tests, a dummy implementation
   5:../../libDaisy//src/per/qspi.h **** 
   6:../../libDaisy//src/per/qspi.h **** #include <cstdint>
   7:../../libDaisy//src/per/qspi.h **** #include "daisy_core.h" // Added for dsy_gpio_pin typedef
   8:../../libDaisy//src/per/qspi.h **** 
   9:../../libDaisy//src/per/qspi.h **** #define DSY_QSPI_TEXT       \
  10:../../libDaisy//src/per/qspi.h ****     __attribute__((section( \
  11:../../libDaisy//src/per/qspi.h ****         ".qspiflash_text"))) /**< used for reading memory in memory_mapped mode. */
  12:../../libDaisy//src/per/qspi.h **** #define DSY_QSPI_DATA       \
  13:../../libDaisy//src/per/qspi.h ****     __attribute__((section( \
  14:../../libDaisy//src/per/qspi.h ****         ".qspiflash_data"))) /**< used for reading memory in memory_mapped mode. */
  15:../../libDaisy//src/per/qspi.h **** #define DSY_QSPI_BSS        \
  16:../../libDaisy//src/per/qspi.h ****     __attribute__((section( \
  17:../../libDaisy//src/per/qspi.h ****         ".qspiflash_bss"))) /**< used for reading memory in memory_mapped mode. */
  18:../../libDaisy//src/per/qspi.h **** 
  19:../../libDaisy//src/per/qspi.h **** namespace daisy
  20:../../libDaisy//src/per/qspi.h **** {
  21:../../libDaisy//src/per/qspi.h **** /** @addtogroup serial
  22:../../libDaisy//src/per/qspi.h **** @{
  23:../../libDaisy//src/per/qspi.h **** */
  24:../../libDaisy//src/per/qspi.h **** 
  25:../../libDaisy//src/per/qspi.h **** /** 
  26:../../libDaisy//src/per/qspi.h ****  Driver for QSPI peripheral to interface with external flash memory. \n 
  27:../../libDaisy//src/per/qspi.h ****     Currently supported QSPI Devices: \n 
  28:../../libDaisy//src/per/qspi.h ****     * IS25LP080D
  29:../../libDaisy//src/per/qspi.h **** */
  30:../../libDaisy//src/per/qspi.h **** class QSPIHandle
  31:../../libDaisy//src/per/qspi.h **** {
  32:../../libDaisy//src/per/qspi.h ****   public:
  33:../../libDaisy//src/per/qspi.h ****     enum Result
  34:../../libDaisy//src/per/qspi.h ****     {
  35:../../libDaisy//src/per/qspi.h ****         OK = 0,
  36:../../libDaisy//src/per/qspi.h ****         ERR
  37:../../libDaisy//src/per/qspi.h ****     };
  38:../../libDaisy//src/per/qspi.h **** 
  39:../../libDaisy//src/per/qspi.h ****     /** Indicates the current status of the module. 
  40:../../libDaisy//src/per/qspi.h ****          *  Warnings are indicated by a leading W.
  41:../../libDaisy//src/per/qspi.h ****          *  Errors are indicated by a leading E and cause an immediate exit.
  42:../../libDaisy//src/per/qspi.h ****          * 
  43:../../libDaisy//src/per/qspi.h ****          *  \param GOOD - No errors have been reported.
  44:../../libDaisy//src/per/qspi.h ****          *  \param E_HAL_ERROR - HAL code did not return HAL_OK.
  45:../../libDaisy//src/per/qspi.h ****          *  \param E_SWITCHING_MODES - An error was encountered while switching QSPI peripheral mod
ARM GAS  C:\Users\vngel\AppData\Local\Temp\ccf1b4Zx.s 			page 58


  46:../../libDaisy//src/per/qspi.h ****          *  \param E_INVALID_MODE - QSPI should not be written to while the program is executing fr
  47:../../libDaisy//src/per/qspi.h ****          */
  48:../../libDaisy//src/per/qspi.h ****     enum Status
  49:../../libDaisy//src/per/qspi.h ****     {
  50:../../libDaisy//src/per/qspi.h ****         GOOD = 0,
  51:../../libDaisy//src/per/qspi.h ****         E_HAL_ERROR,
  52:../../libDaisy//src/per/qspi.h ****         E_SWITCHING_MODES,
  53:../../libDaisy//src/per/qspi.h ****         E_INVALID_MODE,
  54:../../libDaisy//src/per/qspi.h ****     };
  55:../../libDaisy//src/per/qspi.h **** 
  56:../../libDaisy//src/per/qspi.h ****     /** Configuration structure for interfacing with QSPI Driver */
  57:../../libDaisy//src/per/qspi.h ****     struct Config
  58:../../libDaisy//src/per/qspi.h ****     {
  59:../../libDaisy//src/per/qspi.h ****         /** Flash Devices supported. (Both of these are more-or-less the same, just different sizes
  60:../../libDaisy//src/per/qspi.h ****         enum Device
  61:../../libDaisy//src/per/qspi.h ****         {
  62:../../libDaisy//src/per/qspi.h ****             IS25LP080D,  /**< & */
  63:../../libDaisy//src/per/qspi.h ****             IS25LP064A,  /**< & */
  64:../../libDaisy//src/per/qspi.h ****             DEVICE_LAST, /**< & */
  65:../../libDaisy//src/per/qspi.h ****         };
  66:../../libDaisy//src/per/qspi.h **** 
  67:../../libDaisy//src/per/qspi.h ****         /** 
  68:../../libDaisy//src/per/qspi.h ****         Modes of operation.
  69:../../libDaisy//src/per/qspi.h ****         Memory Mapped mode: QSPI configured so that the QSPI can be
  70:../../libDaisy//src/per/qspi.h ****         read from starting address 0x90000000. Writing is not
  71:../../libDaisy//src/per/qspi.h ****         possible in this mode. \n 
  72:../../libDaisy//src/per/qspi.h ****         Indirect Polling mode: Device driver enabled. 
  73:../../libDaisy//src/per/qspi.h ****         */
  74:../../libDaisy//src/per/qspi.h ****         enum Mode
  75:../../libDaisy//src/per/qspi.h ****         {
  76:../../libDaisy//src/per/qspi.h ****             MEMORY_MAPPED,    /**< & */
  77:../../libDaisy//src/per/qspi.h ****             INDIRECT_POLLING, /**< & */
  78:../../libDaisy//src/per/qspi.h ****             MODE_LAST,
  79:../../libDaisy//src/per/qspi.h ****         };
  80:../../libDaisy//src/per/qspi.h **** 
  81:../../libDaisy//src/per/qspi.h ****         //SCK,  CE# (active low)
  82:../../libDaisy//src/per/qspi.h ****         struct
  83:../../libDaisy//src/per/qspi.h ****         {
  84:../../libDaisy//src/per/qspi.h ****             dsy_gpio_pin io0; /**< & */
  85:../../libDaisy//src/per/qspi.h ****             dsy_gpio_pin io1; /**< & */
  86:../../libDaisy//src/per/qspi.h ****             dsy_gpio_pin io2; /**< & */
  87:../../libDaisy//src/per/qspi.h ****             dsy_gpio_pin io3; /**< & */
  88:../../libDaisy//src/per/qspi.h ****             dsy_gpio_pin clk; /**< & */
  89:../../libDaisy//src/per/qspi.h ****             dsy_gpio_pin ncs; /**< & */
  90:../../libDaisy//src/per/qspi.h ****         } pin_config;
  91:../../libDaisy//src/per/qspi.h **** 
  92:../../libDaisy//src/per/qspi.h ****         Device device;
  93:../../libDaisy//src/per/qspi.h ****         Mode   mode;
  94:../../libDaisy//src/per/qspi.h ****     };
  95:../../libDaisy//src/per/qspi.h **** 
  96:../../libDaisy//src/per/qspi.h ****     /** 
  97:../../libDaisy//src/per/qspi.h ****         Initializes QSPI peripheral, and Resets, and prepares memory for access.
  98:../../libDaisy//src/per/qspi.h ****         \param config should be populated with the mode, device and pin_config before calling this 
  99:../../libDaisy//src/per/qspi.h ****         \return Result::OK or Result::ERR
 100:../../libDaisy//src/per/qspi.h ****         */
 101:../../libDaisy//src/per/qspi.h ****     Result Init(const Config& config);
 102:../../libDaisy//src/per/qspi.h **** 
ARM GAS  C:\Users\vngel\AppData\Local\Temp\ccf1b4Zx.s 			page 59


 103:../../libDaisy//src/per/qspi.h ****     /** Returns the current config. */
 104:../../libDaisy//src/per/qspi.h ****     const Config& GetConfig() const;
 105:../../libDaisy//src/per/qspi.h **** 
 106:../../libDaisy//src/per/qspi.h ****     // Couldn't this just be called before anything else in init? That
 107:../../libDaisy//src/per/qspi.h ****     // would make manually calling it unnecessary.
 108:../../libDaisy//src/per/qspi.h ****     /** 
 109:../../libDaisy//src/per/qspi.h ****         Deinitializes the peripheral
 110:../../libDaisy//src/per/qspi.h ****         This should be called before reinitializing QSPI in a different mode.
 111:../../libDaisy//src/per/qspi.h ****         \return Result::OK or Result::ERR
 112:../../libDaisy//src/per/qspi.h ****         */
 113:../../libDaisy//src/per/qspi.h ****     Result DeInit();
 114:../../libDaisy//src/per/qspi.h **** 
 115:../../libDaisy//src/per/qspi.h ****     /** 
 116:../../libDaisy//src/per/qspi.h ****         Writes a single page to to the specified address on the QSPI chip.
 117:../../libDaisy//src/per/qspi.h ****         For IS25LP*, page size is 256 bytes.
 118:../../libDaisy//src/per/qspi.h ****         \param address Address to write to
 119:../../libDaisy//src/per/qspi.h ****         \param size Buffer size
 120:../../libDaisy//src/per/qspi.h ****         \param buffer Buffer to write
 121:../../libDaisy//src/per/qspi.h ****         \return Result::OK or Result::ERR
 122:../../libDaisy//src/per/qspi.h ****         */
 123:../../libDaisy//src/per/qspi.h ****     Result WritePage(uint32_t address, uint32_t size, uint8_t* buffer);
 124:../../libDaisy//src/per/qspi.h **** 
 125:../../libDaisy//src/per/qspi.h ****     /** 
 126:../../libDaisy//src/per/qspi.h ****         Writes data in buffer to to the QSPI. Starting at address to address+size 
 127:../../libDaisy//src/per/qspi.h ****         \param address Address to write to
 128:../../libDaisy//src/per/qspi.h ****         \param size Buffer size
 129:../../libDaisy//src/per/qspi.h ****         \param buffer Buffer to write
 130:../../libDaisy//src/per/qspi.h ****         \return Result::OK or Result::ERR
 131:../../libDaisy//src/per/qspi.h ****         */
 132:../../libDaisy//src/per/qspi.h ****     Result Write(uint32_t address, uint32_t size, uint8_t* buffer);
 133:../../libDaisy//src/per/qspi.h **** 
 134:../../libDaisy//src/per/qspi.h ****     /** 
 135:../../libDaisy//src/per/qspi.h ****         Erases the area specified on the chip.
 136:../../libDaisy//src/per/qspi.h ****         Erasures will happen by 4K, 32K or 64K increments.
 137:../../libDaisy//src/per/qspi.h ****         Smallest erase possible is 4kB at a time. (on IS25LP*)
 138:../../libDaisy//src/per/qspi.h ****         \param start_addr Address to begin erasing from
 139:../../libDaisy//src/per/qspi.h ****         \param end_addr  Address to stop erasing at
 140:../../libDaisy//src/per/qspi.h ****         \return Result::OK or Result::ERR
 141:../../libDaisy//src/per/qspi.h ****         */
 142:../../libDaisy//src/per/qspi.h ****     Result Erase(uint32_t start_addr, uint32_t end_addr);
 143:../../libDaisy//src/per/qspi.h **** 
 144:../../libDaisy//src/per/qspi.h ****     /**  
 145:../../libDaisy//src/per/qspi.h ****          Erases a single sector of the chip.  
 146:../../libDaisy//src/per/qspi.h ****         TODO: Document the size of this function. 
 147:../../libDaisy//src/per/qspi.h ****         \param address Address of sector to erase
 148:../../libDaisy//src/per/qspi.h ****         \return Result::OK or Result::ERR
 149:../../libDaisy//src/per/qspi.h ****         */
 150:../../libDaisy//src/per/qspi.h ****     Result EraseSector(uint32_t address);
 151:../../libDaisy//src/per/qspi.h **** 
 152:../../libDaisy//src/per/qspi.h ****     /** Returns the current class status. Useful for debugging.
 153:../../libDaisy//src/per/qspi.h ****      *  \returns Status
 154:../../libDaisy//src/per/qspi.h ****      */
 155:../../libDaisy//src/per/qspi.h ****     Status GetStatus();
 156:../../libDaisy//src/per/qspi.h **** 
 157:../../libDaisy//src/per/qspi.h ****     /** Returns a pointer to the actual memory used 
 158:../../libDaisy//src/per/qspi.h ****      *  The memory at this address is read-only
 159:../../libDaisy//src/per/qspi.h ****      *  to write to it use the Write function.
ARM GAS  C:\Users\vngel\AppData\Local\Temp\ccf1b4Zx.s 			page 60


 160:../../libDaisy//src/per/qspi.h ****      * 
 161:../../libDaisy//src/per/qspi.h ****      *  \param offset returns the pointer starting this 
 162:../../libDaisy//src/per/qspi.h ****      *                many bytes into the memory
 163:../../libDaisy//src/per/qspi.h ****     */
 164:../../libDaisy//src/per/qspi.h ****     void* GetData(uint32_t offset = 0);
 165:../../libDaisy//src/per/qspi.h **** 
 166:../../libDaisy//src/per/qspi.h ****     QSPIHandle() : pimpl_(nullptr) {}
 1686              		.loc 18 166 5 view .LVU410
 1687              	.LBB341:
 1688              	.LBB342:
 1689              		.loc 18 166 34 is_stmt 0 view .LVU411
 1690 008e 1E48     		ldr	r0, .L78+60
 1691              	.LBE342:
 1692              	.LBE341:
 1693              	.LBE340:
 1694              	.LBE339:
 1695              	.LBE338:
  29:MyNewProject.cpp **** Parameter toneKnob;
 1696              		.loc 11 29 11 view .LVU412
 1697 0090 1E4C     		ldr	r4, .L78+64
  19:MyNewProject.cpp **** static CrossFade cfade;           // Used to blend the wet/dry and maintain a constant mixed volume
 1698              		.loc 11 19 18 view .LVU413
 1699 0092 2A46     		mov	r2, r5
 1700 0094 1E49     		ldr	r1, .L78+68
 1701              	.LBB356:
 1702              	.LBB355:
 1703              	.LBB345:
 1704              	.LBB344:
 1705              	.LBB343:
 1706              		.loc 18 166 34 view .LVU414
 1707 0096 0660     		str	r6, [r0]
 1708              	.LVL116:
 1709              		.loc 18 166 34 view .LVU415
 1710              	.LBE343:
 1711              	.LBE344:
 1712              	.LBE345:
 1713              	.LBB346:
 1714              	.LBI346:
  95:../../libDaisy//src/hid/audio.h ****     ~AudioHandle() {}
 1715              		.loc 10 95 5 is_stmt 1 view .LVU416
 1716              	.LBB347:
 1717              	.LBB348:
  95:../../libDaisy//src/hid/audio.h ****     ~AudioHandle() {}
 1718              		.loc 10 95 35 is_stmt 0 view .LVU417
 1719 0098 4661     		str	r6, [r0, #20]
 1720              	.LVL117:
  95:../../libDaisy//src/hid/audio.h ****     ~AudioHandle() {}
 1721              		.loc 10 95 35 view .LVU418
 1722              	.LBE348:
 1723              	.LBE347:
 1724              	.LBE346:
 1725              	.LBB349:
 1726              	.LBI349:
  92:../../libDaisy//src/per/adc.h ****     ~AdcHandle() {}
 1727              		.loc 9 92 5 is_stmt 1 view .LVU419
  92:../../libDaisy//src/per/adc.h ****     ~AdcHandle() {}
 1728              		.loc 9 92 5 is_stmt 0 view .LVU420
ARM GAS  C:\Users\vngel\AppData\Local\Temp\ccf1b4Zx.s 			page 61


 1729              	.LBE349:
 1730              	.LBB350:
 1731              	.LBI350:
 1732              		.file 19 "../../libDaisy//src/per/dac.h"
   1:../../libDaisy//src/per/dac.h **** #pragma once
   2:../../libDaisy//src/per/dac.h **** #ifndef DSY_DAC_H
   3:../../libDaisy//src/per/dac.h **** #define DSY_DAC_H
   4:../../libDaisy//src/per/dac.h **** 
   5:../../libDaisy//src/per/dac.h **** #include "daisy_core.h"
   6:../../libDaisy//src/per/dac.h **** 
   7:../../libDaisy//src/per/dac.h **** namespace daisy
   8:../../libDaisy//src/per/dac.h **** {
   9:../../libDaisy//src/per/dac.h **** /** @brief DAC handle for Built-in DAC Peripheral 
  10:../../libDaisy//src/per/dac.h ****  *  @ingroup per_analog
  11:../../libDaisy//src/per/dac.h ****  ** 
  12:../../libDaisy//src/per/dac.h ****  ** For now only Normal Mode is supported,
  13:../../libDaisy//src/per/dac.h ****  ** Sample and hold mode provides reduced power consumption, but requires a bit more setup.
  14:../../libDaisy//src/per/dac.h ****  **
  15:../../libDaisy//src/per/dac.h ****  ** For now connecting the DAC through other internal peripherals is also not supported.
  16:../../libDaisy//src/per/dac.h ****  **
  17:../../libDaisy//src/per/dac.h ****  ** Since the DAC channels have dedicated pins we don't need to pass in a pin config like with
  18:../../libDaisy//src/per/dac.h ****  ** other modules. However, it is still important to not try to use the DAC pins for anything else.
  19:../../libDaisy//src/per/dac.h ****  ** DAC Channel 1 is on PA4, and DAC Channel 2 is on PA5
  20:../../libDaisy//src/per/dac.h ****  ***/
  21:../../libDaisy//src/per/dac.h **** class DacHandle
  22:../../libDaisy//src/per/dac.h **** {
  23:../../libDaisy//src/per/dac.h ****   public:
  24:../../libDaisy//src/per/dac.h ****     /** Return Values for the DacHandle class */
  25:../../libDaisy//src/per/dac.h ****     enum class Result
  26:../../libDaisy//src/per/dac.h ****     {
  27:../../libDaisy//src/per/dac.h ****         OK,
  28:../../libDaisy//src/per/dac.h ****         ERR,
  29:../../libDaisy//src/per/dac.h ****     };
  30:../../libDaisy//src/per/dac.h **** 
  31:../../libDaisy//src/per/dac.h ****     /** Selects which channel(s) will be configured for use. */
  32:../../libDaisy//src/per/dac.h ****     enum class Channel
  33:../../libDaisy//src/per/dac.h ****     {
  34:../../libDaisy//src/per/dac.h ****         ONE,
  35:../../libDaisy//src/per/dac.h ****         TWO,
  36:../../libDaisy//src/per/dac.h ****         BOTH,
  37:../../libDaisy//src/per/dac.h ****     };
  38:../../libDaisy//src/per/dac.h **** 
  39:../../libDaisy//src/per/dac.h ****     /** Sets the Mode for the DAC channels.
  40:../../libDaisy//src/per/dac.h ****      **
  41:../../libDaisy//src/per/dac.h ****      ** Polling mode uses the blocking mode to transmit a single value at a time.
  42:../../libDaisy//src/per/dac.h ****      **
  43:../../libDaisy//src/per/dac.h ****      ** DMA mode uses a buffer, and periodically transmits it triggering a 
  44:../../libDaisy//src/per/dac.h ****      ** callback to fill the buffer when it is ready for more samples.
  45:../../libDaisy//src/per/dac.h ****      ***/
  46:../../libDaisy//src/per/dac.h ****     enum class Mode
  47:../../libDaisy//src/per/dac.h ****     {
  48:../../libDaisy//src/per/dac.h ****         POLLING,
  49:../../libDaisy//src/per/dac.h ****         DMA,
  50:../../libDaisy//src/per/dac.h ****     };
  51:../../libDaisy//src/per/dac.h **** 
  52:../../libDaisy//src/per/dac.h ****     /** Sets the number of bits per sample transmitted out of the DAC.
  53:../../libDaisy//src/per/dac.h ****      ** The output range will be: 0V - VDDA
ARM GAS  C:\Users\vngel\AppData\Local\Temp\ccf1b4Zx.s 			page 62


  54:../../libDaisy//src/per/dac.h ****      ** The resolution will be roughly: bitdepth / (VDDA - 0V) 
  55:../../libDaisy//src/per/dac.h ****      ***/
  56:../../libDaisy//src/per/dac.h ****     enum class BitDepth
  57:../../libDaisy//src/per/dac.h ****     {
  58:../../libDaisy//src/per/dac.h ****         BITS_8,
  59:../../libDaisy//src/per/dac.h ****         BITS_12
  60:../../libDaisy//src/per/dac.h ****     };
  61:../../libDaisy//src/per/dac.h **** 
  62:../../libDaisy//src/per/dac.h ****     /** Sets whether the DAC output is buffered for higher drive ability. */
  63:../../libDaisy//src/per/dac.h ****     enum class BufferState
  64:../../libDaisy//src/per/dac.h ****     {
  65:../../libDaisy//src/per/dac.h ****         ENABLED,
  66:../../libDaisy//src/per/dac.h ****         DISABLED,
  67:../../libDaisy//src/per/dac.h ****     };
  68:../../libDaisy//src/per/dac.h **** 
  69:../../libDaisy//src/per/dac.h ****     /** Configuration structure for initializing the DAC structure. */
  70:../../libDaisy//src/per/dac.h ****     struct Config
  71:../../libDaisy//src/per/dac.h ****     {
  72:../../libDaisy//src/per/dac.h ****         /** Target Samplerate in Hz used to configure the internal 
  73:../../libDaisy//src/per/dac.h ****          ** timebase for DMA mode. Does nothing in POLLING mode.
  74:../../libDaisy//src/per/dac.h ****          ** If the value is 0 at Init time this will default to 48000Hz 
  75:../../libDaisy//src/per/dac.h ****          ** otherwise the driver will attempt meet the target.*/
  76:../../libDaisy//src/per/dac.h ****         uint32_t target_samplerate;
  77:../../libDaisy//src/per/dac.h **** 
  78:../../libDaisy//src/per/dac.h ****         Channel     chn;
  79:../../libDaisy//src/per/dac.h ****         Mode        mode;
  80:../../libDaisy//src/per/dac.h ****         BitDepth    bitdepth;
  81:../../libDaisy//src/per/dac.h ****         BufferState buff_state;
  82:../../libDaisy//src/per/dac.h ****     };
  83:../../libDaisy//src/per/dac.h **** 
  84:../../libDaisy//src/per/dac.h ****     DacHandle() : pimpl_(nullptr) {}
 1733              		.loc 19 84 5 is_stmt 1 view .LVU421
 1734              	.LBB351:
 1735              	.LBB352:
 1736              		.loc 19 84 33 is_stmt 0 view .LVU422
 1737 009a 0662     		str	r6, [r0, #32]
 1738              	.LVL118:
 1739              		.loc 19 84 33 view .LVU423
 1740              	.LBE352:
 1741              	.LBE351:
 1742              	.LBE350:
 1743              	.LBB353:
 1744              	.LBI353:
  40:../../libDaisy//src/hid/usb.h **** 
 1745              		.loc 8 40 5 is_stmt 1 view .LVU424
  40:../../libDaisy//src/hid/usb.h **** 
 1746              		.loc 8 40 5 is_stmt 0 view .LVU425
 1747              	.LBE353:
 1748              	.LBB354:
 1749              	.LBI354:
  77:../../libDaisy//src/sys/system.h ****     ~System() {}
 1750              		.loc 7 77 5 is_stmt 1 view .LVU426
  77:../../libDaisy//src/sys/system.h ****     ~System() {}
 1751              		.loc 7 77 5 is_stmt 0 view .LVU427
 1752              	.LBE354:
 1753              	.LBE355:
 1754              	.LBE356:
ARM GAS  C:\Users\vngel\AppData\Local\Temp\ccf1b4Zx.s 			page 63


  19:MyNewProject.cpp **** static CrossFade cfade;           // Used to blend the wet/dry and maintain a constant mixed volume
 1755              		.loc 11 19 18 view .LVU428
 1756 009c FFF7FEFF 		bl	__aeabi_atexit
 1757              	.LVL119:
 1758              	.LBB357:
 1759              	.LBI357:
  36:../../DaisySP//Source/Dynamics/crossfade.h ****     ~CrossFade() {}
 1760              		.loc 2 36 5 is_stmt 1 view .LVU429
  36:../../DaisySP//Source/Dynamics/crossfade.h ****     ~CrossFade() {}
 1761              		.loc 2 36 5 is_stmt 0 view .LVU430
 1762              	.LBE357:
  20:MyNewProject.cpp **** 
 1763              		.loc 11 20 18 view .LVU431
 1764 00a0 2A46     		mov	r2, r5
 1765 00a2 1C49     		ldr	r1, .L78+72
 1766 00a4 1C48     		ldr	r0, .L78+76
 1767 00a6 FFF7FEFF 		bl	__aeabi_atexit
 1768              	.LVL120:
 1769              	.LBB358:
 1770              	.LBI358:
  25:../../libDaisy//src/hid/parameter.h ****     /** Destructor */
 1771              		.loc 4 25 5 is_stmt 1 view .LVU432
 1772              	.LBB359:
 1773              	.LBB360:
 1774              	.LBI360:
  21:../../libDaisy//src/hid/ctrl.h ****     /** destructor */
 1775              		.loc 5 21 5 view .LVU433
  21:../../libDaisy//src/hid/ctrl.h ****     /** destructor */
 1776              		.loc 5 21 5 is_stmt 0 view .LVU434
 1777              	.LBE360:
 1778              	.LBE359:
 1779              	.LBE358:
  29:MyNewProject.cpp **** Parameter toneKnob;
 1780              		.loc 11 29 11 view .LVU435
 1781 00aa 2A46     		mov	r2, r5
 1782 00ac 2146     		mov	r1, r4
 1783 00ae 1B48     		ldr	r0, .L78+80
 1784 00b0 FFF7FEFF 		bl	__aeabi_atexit
 1785              	.LVL121:
 1786              	.LBB361:
 1787              	.LBI361:
  25:../../libDaisy//src/hid/parameter.h ****     /** Destructor */
 1788              		.loc 4 25 5 is_stmt 1 view .LVU436
 1789              	.LBB362:
 1790              	.LBB363:
 1791              	.LBI363:
  21:../../libDaisy//src/hid/ctrl.h ****     /** destructor */
 1792              		.loc 5 21 5 view .LVU437
  21:../../libDaisy//src/hid/ctrl.h ****     /** destructor */
 1793              		.loc 5 21 5 is_stmt 0 view .LVU438
 1794              	.LBE363:
 1795              	.LBE362:
 1796              	.LBE361:
  30:MyNewProject.cpp **** Parameter timeKnob;
 1797              		.loc 11 30 11 view .LVU439
 1798 00b4 2A46     		mov	r2, r5
 1799 00b6 2146     		mov	r1, r4
ARM GAS  C:\Users\vngel\AppData\Local\Temp\ccf1b4Zx.s 			page 64


 1800 00b8 1948     		ldr	r0, .L78+84
 1801 00ba FFF7FEFF 		bl	__aeabi_atexit
 1802              	.LVL122:
 1803              	.LBB364:
 1804              	.LBI364:
  25:../../libDaisy//src/hid/parameter.h ****     /** Destructor */
 1805              		.loc 4 25 5 is_stmt 1 view .LVU440
 1806              	.LBB365:
 1807              	.LBB366:
 1808              	.LBI366:
  21:../../libDaisy//src/hid/ctrl.h ****     /** destructor */
 1809              		.loc 5 21 5 view .LVU441
  21:../../libDaisy//src/hid/ctrl.h ****     /** destructor */
 1810              		.loc 5 21 5 is_stmt 0 view .LVU442
 1811              	.LBE366:
 1812              	.LBE365:
 1813              	.LBE364:
  31:MyNewProject.cpp **** 
 1814              		.loc 11 31 11 view .LVU443
 1815 00be 2A46     		mov	r2, r5
 1816 00c0 2146     		mov	r1, r4
 1817 00c2 1848     		ldr	r0, .L78+88
 1818              	.LBE367:
 1819              	.LBE369:
 1820              		.loc 11 227 1 view .LVU444
 1821 00c4 BDE87040 		pop	{r4, r5, r6, lr}
 1822              		.cfi_restore 14
 1823              		.cfi_restore 6
 1824              		.cfi_restore 5
 1825              		.cfi_restore 4
 1826              		.cfi_def_cfa_offset 0
 1827              	.LBB370:
 1828              	.LBB368:
  31:MyNewProject.cpp **** 
 1829              		.loc 11 31 11 view .LVU445
 1830 00c8 FFF7FEBF 		b	__aeabi_atexit
 1831              	.LVL123:
 1832              	.L79:
 1833              		.align	2
 1834              	.L78:
 1835 00cc 00000000 		.word	__dso_handle
 1836 00d0 00000000 		.word	__tcf_0
 1837 00d4 00000000 		.word	.LANCHOR6
 1838 00d8 00000000 		.word	.LANCHOR4
 1839 00dc 00803B47 		.word	1195081728
 1840 00e0 00000000 		.word	_ZN10ToneFilterD1Ev
 1841 00e4 00000000 		.word	_ZN7daisysp7BalanceD1Ev
 1842 00e8 00000000 		.word	.LANCHOR10
 1843 00ec 00000000 		.word	.LANCHOR1
 1844 00f0 00003040 		.word	1076887552
 1845 00f4 0000E03F 		.word	1071644672
 1846 00f8 00000000 		.word	_ZN5daisy6SwitchD1Ev
 1847 00fc 00000000 		.word	.LANCHOR8
 1848 0100 00000000 		.word	.LANCHOR0
 1849 0104 00000000 		.word	__tcf_1
 1850 0108 00000000 		.word	.LANCHOR13
 1851 010c 00000000 		.word	_ZN5daisy9ParameterD1Ev
ARM GAS  C:\Users\vngel\AppData\Local\Temp\ccf1b4Zx.s 			page 65


 1852 0110 00000000 		.word	_ZN5daisy9DaisySeedD1Ev
 1853 0114 00000000 		.word	_ZN7daisysp9CrossFadeD1Ev
 1854 0118 00000000 		.word	.LANCHOR11
 1855 011c 00000000 		.word	.LANCHOR3
 1856 0120 00000000 		.word	.LANCHOR5
 1857 0124 00000000 		.word	.LANCHOR7
 1858              	.LBE368:
 1859              	.LBE370:
 1860              		.cfi_endproc
 1861              	.LFE5382:
 1863              		.section	.init_array,"aw",%init_array
 1864              		.align	2
 1865 0000 00000000 		.word	_GLOBAL__sub_I_delayMems(target1)
 1866              		.global	timeKnob
 1867              		.global	toneKnob
 1868              		.global	feedbackKnob
 1869              		.global	onButtonWasPressed
 1870              		.global	drywet_ratio
 1871              		.global	MAX_FEEDBACK
 1872              		.global	headSwitches
 1873              		.global	TEMPO_BUTTON
 1874              		.global	ON_BUTTON
 1875              		.global	tapTempo
 1876              		.global	tone
 1877              		.global	delay
 1878              		.global	delayMems
 1879              		.section	.bss.ON_BUTTON,"aw",%nobits
 1880              		.align	2
 1881              		.set	.LANCHOR8,. + 0
 1884              	ON_BUTTON:
 1885 0000 00000000 		.space	16
 1885      00000000 
 1885      00000000 
 1885      00000000 
 1886              		.section	.bss.TEMPO_BUTTON,"aw",%nobits
 1887              		.align	2
 1888              		.set	.LANCHOR0,. + 0
 1891              	TEMPO_BUTTON:
 1892 0000 00000000 		.space	16
 1892      00000000 
 1892      00000000 
 1892      00000000 
 1893              		.section	.bss._ZL2hw,"aw",%nobits
 1894              		.align	2
 1895              		.set	.LANCHOR13,. + 0
 1898              	_ZL2hw:
 1899 0000 00000000 		.space	60
 1899      00000000 
 1899      00000000 
 1899      00000000 
 1899      00000000 
 1900              		.section	.bss._ZL5cfade,"aw",%nobits
 1901              		.align	2
 1902              		.set	.LANCHOR11,. + 0
 1905              	_ZL5cfade:
 1906 0000 00000000 		.space	8
 1906      00000000 
ARM GAS  C:\Users\vngel\AppData\Local\Temp\ccf1b4Zx.s 			page 66


 1907              		.section	.bss._ZL7balance,"aw",%nobits
 1908              		.align	2
 1909              		.set	.LANCHOR10,. + 0
 1912              	_ZL7balance:
 1913 0000 00000000 		.space	28
 1913      00000000 
 1913      00000000 
 1913      00000000 
 1913      00000000 
 1914              		.section	.bss.delay,"aw",%nobits
 1915              		.align	2
 1916              		.set	.LANCHOR4,. + 0
 1919              	delay:
 1920 0000 00000000 		.space	76
 1920      00000000 
 1920      00000000 
 1920      00000000 
 1920      00000000 
 1921              		.section	.bss.feedbackKnob,"aw",%nobits
 1922              		.align	2
 1923              		.set	.LANCHOR3,. + 0
 1926              	feedbackKnob:
 1927 0000 00000000 		.space	56
 1927      00000000 
 1927      00000000 
 1927      00000000 
 1927      00000000 
 1928              		.section	.bss.headSwitches,"aw",%nobits
 1929              		.align	2
 1930              		.set	.LANCHOR2,. + 0
 1933              	headSwitches:
 1934 0000 00000000 		.space	64
 1934      00000000 
 1934      00000000 
 1934      00000000 
 1934      00000000 
 1935              		.section	.bss.onButtonWasPressed,"aw",%nobits
 1936              		.set	.LANCHOR9,. + 0
 1939              	onButtonWasPressed:
 1940 0000 00       		.space	1
 1941              		.section	.bss.tapTempo,"aw",%nobits
 1942              		.align	2
 1943              		.set	.LANCHOR1,. + 0
 1946              	tapTempo:
 1947 0000 00000000 		.space	100
 1947      00000000 
 1947      00000000 
 1947      00000000 
 1947      00000000 
 1948              		.section	.bss.timeKnob,"aw",%nobits
 1949              		.align	2
 1950              		.set	.LANCHOR7,. + 0
 1953              	timeKnob:
 1954 0000 00000000 		.space	56
 1954      00000000 
 1954      00000000 
 1954      00000000 
ARM GAS  C:\Users\vngel\AppData\Local\Temp\ccf1b4Zx.s 			page 67


 1954      00000000 
 1955              		.section	.bss.tone,"aw",%nobits
 1956              		.align	2
 1957              		.set	.LANCHOR6,. + 0
 1960              	tone:
 1961 0000 00000000 		.space	60
 1961      00000000 
 1961      00000000 
 1961      00000000 
 1961      00000000 
 1962              		.section	.bss.toneKnob,"aw",%nobits
 1963              		.align	2
 1964              		.set	.LANCHOR5,. + 0
 1967              	toneKnob:
 1968 0000 00000000 		.space	56
 1968      00000000 
 1968      00000000 
 1968      00000000 
 1968      00000000 
 1969              		.section	.data.MAX_FEEDBACK,"aw"
 1970              		.align	2
 1971              		.set	.LANCHOR14,. + 0
 1974              	MAX_FEEDBACK:
 1975 0000 CDCC8C3F 		.word	1066192077
 1976              		.section	.data.drywet_ratio,"aw"
 1977              		.align	2
 1978              		.set	.LANCHOR12,. + 0
 1981              	drywet_ratio:
 1982 0000 0000003F 		.word	1056964608
 1983              		.section	.sdram_bss,"aw"
 1984              		.align	2
 1987              	delayMems:
 1988 0000 00000000 		.space	1536048
 1988      00000000 
 1988      00000000 
 1988      00000000 
 1988      00000000 
 1989              		.text
 1990              	.Letext0:
 1991              		.file 20 "c:\\program files\\daisytoolchain\\arm-none-eabi\\include\\machine\\_default_types.h"
 1992              		.file 21 "c:\\program files\\daisytoolchain\\arm-none-eabi\\include\\sys\\_stdint.h"
 1993              		.file 22 "c:\\program files\\daisytoolchain\\arm-none-eabi\\include\\stdint.h"
 1994              		.file 23 "c:\\program files\\daisytoolchain\\lib\\gcc\\arm-none-eabi\\10.2.1\\include\\stddef.h"
 1995              		.file 24 "c:\\program files\\daisytoolchain\\arm-none-eabi\\include\\c++\\10.2.1\\cmath"
 1996              		.file 25 "c:\\program files\\daisytoolchain\\arm-none-eabi\\include\\c++\\10.2.1\\bits\\std_abs.h"
 1997              		.file 26 "c:\\program files\\daisytoolchain\\arm-none-eabi\\include\\c++\\10.2.1\\cstdint"
 1998              		.file 27 "c:\\program files\\daisytoolchain\\arm-none-eabi\\include\\c++\\10.2.1\\cstdlib"
 1999              		.file 28 "c:\\program files\\daisytoolchain\\arm-none-eabi\\include\\c++\\10.2.1\\type_traits"
 2000              		.file 29 "c:\\program files\\daisytoolchain\\arm-none-eabi\\include\\c++\\10.2.1\\debug\\debug.h"
 2001              		.file 30 "c:\\program files\\daisytoolchain\\arm-none-eabi\\include\\c++\\10.2.1\\cwchar"
 2002              		.file 31 "c:\\program files\\daisytoolchain\\arm-none-eabi\\include\\c++\\10.2.1\\bits\\stl_pair.h
 2003              		.file 32 "c:\\program files\\daisytoolchain\\arm-none-eabi\\include\\c++\\10.2.1\\bits\\exception_
 2004              		.file 33 "c:\\program files\\daisytoolchain\\arm-none-eabi\\include\\c++\\10.2.1\\arm-none-eabi\\t
 2005              		.file 34 "c:\\program files\\daisytoolchain\\arm-none-eabi\\include\\c++\\10.2.1\\clocale"
 2006              		.file 35 "c:\\program files\\daisytoolchain\\arm-none-eabi\\include\\c++\\10.2.1\\cstdio"
 2007              		.file 36 "c:\\program files\\daisytoolchain\\arm-none-eabi\\include\\c++\\10.2.1\\bits\\basic_stri
 2008              		.file 37 "c:\\program files\\daisytoolchain\\arm-none-eabi\\include\\c++\\10.2.1\\bits\\charconv.h
ARM GAS  C:\Users\vngel\AppData\Local\Temp\ccf1b4Zx.s 			page 68


 2009              		.file 38 "c:\\program files\\daisytoolchain\\arm-none-eabi\\include\\c++\\10.2.1\\cstring"
 2010              		.file 39 "c:\\program files\\daisytoolchain\\arm-none-eabi\\include\\c++\\10.2.1\\bits\\algorithmf
 2011              		.file 40 "c:\\program files\\daisytoolchain\\arm-none-eabi\\include\\c++\\10.2.1\\cstdarg"
 2012              		.file 41 "c:\\program files\\daisytoolchain\\arm-none-eabi\\include\\c++\\10.2.1\\bits\\predefined
 2013              		.file 42 "c:\\program files\\daisytoolchain\\arm-none-eabi\\include\\sys\\_types.h"
 2014              		.file 43 "c:\\program files\\daisytoolchain\\arm-none-eabi\\include\\sys\\reent.h"
 2015              		.file 44 "c:\\program files\\daisytoolchain\\arm-none-eabi\\include\\sys\\lock.h"
 2016              		.file 45 "c:\\program files\\daisytoolchain\\arm-none-eabi\\include\\math.h"
 2017              		.file 46 "c:\\program files\\daisytoolchain\\arm-none-eabi\\include\\stdlib.h"
 2018              		.file 47 "c:\\program files\\daisytoolchain\\arm-none-eabi\\include\\c++\\10.2.1\\math.h"
 2019              		.file 48 "../../DaisySP//Source/Control/adenv.h"
 2020              		.file 49 "../../DaisySP//Source/Utility/dsp.h"
 2021              		.file 50 "c:\\program files\\daisytoolchain\\lib\\gcc\\arm-none-eabi\\10.2.1\\include\\stdarg.h"
 2022              		.file 51 "c:\\program files\\daisytoolchain\\arm-none-eabi\\include\\wchar.h"
 2023              		.file 52 "c:\\program files\\daisytoolchain\\arm-none-eabi\\include\\locale.h"
 2024              		.file 53 "c:\\program files\\daisytoolchain\\arm-none-eabi\\include\\stdio.h"
 2025              		.file 54 "c:\\program files\\daisytoolchain\\arm-none-eabi\\include\\c++\\10.2.1\\stdlib.h"
 2026              		.file 55 "c:\\program files\\daisytoolchain\\arm-none-eabi\\include\\string.h"
 2027              		.file 56 "../../libDaisy//src/per/tim.h"
 2028              		.file 57 "../../libDaisy//src/per/sai.h"
 2029              		.file 58 "../../libDaisy//src/hid/logger_impl.h"
 2030              		.file 59 "../../libDaisy//src/util/wav_format.h"
 2031              		.file 60 "../../libDaisy//src/dev/max11300.h"
 2032              		.file 61 "../../libDaisy//src/hid/logger.h"
 2033              		.file 62 "../../libDaisy//src/per/gpio.h"
 2034              		.file 63 "../../libDaisy//src/dev/sdram.h"
 2035              		.file 64 "Delay.h"
 2036              		.file 65 "../../libDaisy//src/dev/sr_595.h"
 2037              		.file 66 "<built-in>"
ARM GAS  C:\Users\vngel\AppData\Local\Temp\ccf1b4Zx.s 			page 69


DEFINED SYMBOLS
                            *ABS*:00000000 MyNewProject.cpp
C:\Users\vngel\AppData\Local\Temp\ccf1b4Zx.s:17     .text._ZN7daisysp7BalanceD2Ev:00000000 $t
C:\Users\vngel\AppData\Local\Temp\ccf1b4Zx.s:26     .text._ZN7daisysp7BalanceD2Ev:00000000 _ZN7daisysp7BalanceD2Ev
C:\Users\vngel\AppData\Local\Temp\ccf1b4Zx.s:26     .text._ZN7daisysp7BalanceD2Ev:00000000 _ZN7daisysp7BalanceD1Ev
C:\Users\vngel\AppData\Local\Temp\ccf1b4Zx.s:43     .text._ZN7daisysp9CrossFadeD2Ev:00000000 $t
C:\Users\vngel\AppData\Local\Temp\ccf1b4Zx.s:51     .text._ZN7daisysp9CrossFadeD2Ev:00000000 _ZN7daisysp9CrossFadeD2Ev
C:\Users\vngel\AppData\Local\Temp\ccf1b4Zx.s:51     .text._ZN7daisysp9CrossFadeD2Ev:00000000 _ZN7daisysp9CrossFadeD1Ev
C:\Users\vngel\AppData\Local\Temp\ccf1b4Zx.s:68     .text._ZN5daisy6SwitchD2Ev:00000000 $t
C:\Users\vngel\AppData\Local\Temp\ccf1b4Zx.s:76     .text._ZN5daisy6SwitchD2Ev:00000000 _ZN5daisy6SwitchD2Ev
C:\Users\vngel\AppData\Local\Temp\ccf1b4Zx.s:76     .text._ZN5daisy6SwitchD2Ev:00000000 _ZN5daisy6SwitchD1Ev
C:\Users\vngel\AppData\Local\Temp\ccf1b4Zx.s:93     .text._ZN5daisy9ParameterD2Ev:00000000 $t
C:\Users\vngel\AppData\Local\Temp\ccf1b4Zx.s:101    .text._ZN5daisy9ParameterD2Ev:00000000 _ZN5daisy9ParameterD2Ev
C:\Users\vngel\AppData\Local\Temp\ccf1b4Zx.s:101    .text._ZN5daisy9ParameterD2Ev:00000000 _ZN5daisy9ParameterD1Ev
C:\Users\vngel\AppData\Local\Temp\ccf1b4Zx.s:124    .text._ZN5daisy9DaisySeedD2Ev:00000000 $t
C:\Users\vngel\AppData\Local\Temp\ccf1b4Zx.s:132    .text._ZN5daisy9DaisySeedD2Ev:00000000 _ZN5daisy9DaisySeedD2Ev
C:\Users\vngel\AppData\Local\Temp\ccf1b4Zx.s:132    .text._ZN5daisy9DaisySeedD2Ev:00000000 _ZN5daisy9DaisySeedD1Ev
C:\Users\vngel\AppData\Local\Temp\ccf1b4Zx.s:173    .text.__tcf_0:00000000 $t
C:\Users\vngel\AppData\Local\Temp\ccf1b4Zx.s:180    .text.__tcf_0:00000000 __tcf_0
C:\Users\vngel\AppData\Local\Temp\ccf1b4Zx.s:194    .text._ZN10ToneFilterD2Ev:00000000 $t
C:\Users\vngel\AppData\Local\Temp\ccf1b4Zx.s:202    .text._ZN10ToneFilterD2Ev:00000000 _ZN10ToneFilterD2Ev
C:\Users\vngel\AppData\Local\Temp\ccf1b4Zx.s:202    .text._ZN10ToneFilterD2Ev:00000000 _ZN10ToneFilterD1Ev
C:\Users\vngel\AppData\Local\Temp\ccf1b4Zx.s:231    .text.__tcf_1:00000000 $t
C:\Users\vngel\AppData\Local\Temp\ccf1b4Zx.s:238    .text.__tcf_1:00000000 __tcf_1
C:\Users\vngel\AppData\Local\Temp\ccf1b4Zx.s:249    .text._Z10CheckTempov:00000000 $t
C:\Users\vngel\AppData\Local\Temp\ccf1b4Zx.s:257    .text._Z10CheckTempov:00000000 _Z10CheckTempov
C:\Users\vngel\AppData\Local\Temp\ccf1b4Zx.s:312    .text._Z10CheckTempov:00000024 $d
C:\Users\vngel\AppData\Local\Temp\ccf1b4Zx.s:318    .text._Z15InitHeadButtonsv:00000000 $t
C:\Users\vngel\AppData\Local\Temp\ccf1b4Zx.s:326    .text._Z15InitHeadButtonsv:00000000 _Z15InitHeadButtonsv
C:\Users\vngel\AppData\Local\Temp\ccf1b4Zx.s:385    .text._Z15InitHeadButtonsv:00000030 $d
C:\Users\vngel\AppData\Local\Temp\ccf1b4Zx.s:391    .rodata._Z15ProcessControlsv.str1.4:00000000 $d
C:\Users\vngel\AppData\Local\Temp\ccf1b4Zx.s:395    .text._Z15ProcessControlsv:00000000 $t
C:\Users\vngel\AppData\Local\Temp\ccf1b4Zx.s:403    .text._Z15ProcessControlsv:00000000 _Z15ProcessControlsv
C:\Users\vngel\AppData\Local\Temp\ccf1b4Zx.s:599    .text._Z15ProcessControlsv:000000e0 $d
C:\Users\vngel\AppData\Local\Temp\ccf1b4Zx.s:611    .text._ZL13AudioCallbackPKPKfPPfj:00000000 $t
C:\Users\vngel\AppData\Local\Temp\ccf1b4Zx.s:618    .text._ZL13AudioCallbackPKPKfPPfj:00000000 _ZL13AudioCallbackPKPKfPPfj
C:\Users\vngel\AppData\Local\Temp\ccf1b4Zx.s:920    .text._ZL13AudioCallbackPKPKfPPfj:00000100 $d
C:\Users\vngel\AppData\Local\Temp\ccf1b4Zx.s:933    .text._Z9initDelayv:00000000 $t
C:\Users\vngel\AppData\Local\Temp\ccf1b4Zx.s:941    .text._Z9initDelayv:00000000 _Z9initDelayv
C:\Users\vngel\AppData\Local\Temp\ccf1b4Zx.s:1066   .text._Z9initDelayv:0000005c $d
C:\Users\vngel\AppData\Local\Temp\ccf1b4Zx.s:1987   .sdram_bss:00000000 delayMems
C:\Users\vngel\AppData\Local\Temp\ccf1b4Zx.s:1076   .text.startup.main:00000000 $t
C:\Users\vngel\AppData\Local\Temp\ccf1b4Zx.s:1084   .text.startup.main:00000000 main
C:\Users\vngel\AppData\Local\Temp\ccf1b4Zx.s:1500   .text.startup.main:000001f4 $d
C:\Users\vngel\AppData\Local\Temp\ccf1b4Zx.s:1520   .text.startup._GLOBAL__sub_I_delayMems:00000000 $t
C:\Users\vngel\AppData\Local\Temp\ccf1b4Zx.s:1527   .text.startup._GLOBAL__sub_I_delayMems:00000000 _GLOBAL__sub_I_delayMems
C:\Users\vngel\AppData\Local\Temp\ccf1b4Zx.s:1835   .text.startup._GLOBAL__sub_I_delayMems:000000cc $d
C:\Users\vngel\AppData\Local\Temp\ccf1b4Zx.s:1864   .init_array:00000000 $d
C:\Users\vngel\AppData\Local\Temp\ccf1b4Zx.s:1953   .bss.timeKnob:00000000 timeKnob
C:\Users\vngel\AppData\Local\Temp\ccf1b4Zx.s:1967   .bss.toneKnob:00000000 toneKnob
C:\Users\vngel\AppData\Local\Temp\ccf1b4Zx.s:1926   .bss.feedbackKnob:00000000 feedbackKnob
C:\Users\vngel\AppData\Local\Temp\ccf1b4Zx.s:1939   .bss.onButtonWasPressed:00000000 onButtonWasPressed
C:\Users\vngel\AppData\Local\Temp\ccf1b4Zx.s:1981   .data.drywet_ratio:00000000 drywet_ratio
C:\Users\vngel\AppData\Local\Temp\ccf1b4Zx.s:1974   .data.MAX_FEEDBACK:00000000 MAX_FEEDBACK
C:\Users\vngel\AppData\Local\Temp\ccf1b4Zx.s:1933   .bss.headSwitches:00000000 headSwitches
C:\Users\vngel\AppData\Local\Temp\ccf1b4Zx.s:1891   .bss.TEMPO_BUTTON:00000000 TEMPO_BUTTON
C:\Users\vngel\AppData\Local\Temp\ccf1b4Zx.s:1884   .bss.ON_BUTTON:00000000 ON_BUTTON
ARM GAS  C:\Users\vngel\AppData\Local\Temp\ccf1b4Zx.s 			page 70


C:\Users\vngel\AppData\Local\Temp\ccf1b4Zx.s:1946   .bss.tapTempo:00000000 tapTempo
C:\Users\vngel\AppData\Local\Temp\ccf1b4Zx.s:1960   .bss.tone:00000000 tone
C:\Users\vngel\AppData\Local\Temp\ccf1b4Zx.s:1919   .bss.delay:00000000 delay
C:\Users\vngel\AppData\Local\Temp\ccf1b4Zx.s:1880   .bss.ON_BUTTON:00000000 $d
C:\Users\vngel\AppData\Local\Temp\ccf1b4Zx.s:1887   .bss.TEMPO_BUTTON:00000000 $d
C:\Users\vngel\AppData\Local\Temp\ccf1b4Zx.s:1894   .bss._ZL2hw:00000000 $d
C:\Users\vngel\AppData\Local\Temp\ccf1b4Zx.s:1898   .bss._ZL2hw:00000000 _ZL2hw
C:\Users\vngel\AppData\Local\Temp\ccf1b4Zx.s:1901   .bss._ZL5cfade:00000000 $d
C:\Users\vngel\AppData\Local\Temp\ccf1b4Zx.s:1905   .bss._ZL5cfade:00000000 _ZL5cfade
C:\Users\vngel\AppData\Local\Temp\ccf1b4Zx.s:1908   .bss._ZL7balance:00000000 $d
C:\Users\vngel\AppData\Local\Temp\ccf1b4Zx.s:1912   .bss._ZL7balance:00000000 _ZL7balance
C:\Users\vngel\AppData\Local\Temp\ccf1b4Zx.s:1915   .bss.delay:00000000 $d
C:\Users\vngel\AppData\Local\Temp\ccf1b4Zx.s:1922   .bss.feedbackKnob:00000000 $d
C:\Users\vngel\AppData\Local\Temp\ccf1b4Zx.s:1929   .bss.headSwitches:00000000 $d
C:\Users\vngel\AppData\Local\Temp\ccf1b4Zx.s:1940   .bss.onButtonWasPressed:00000000 $d
C:\Users\vngel\AppData\Local\Temp\ccf1b4Zx.s:1942   .bss.tapTempo:00000000 $d
C:\Users\vngel\AppData\Local\Temp\ccf1b4Zx.s:1949   .bss.timeKnob:00000000 $d
C:\Users\vngel\AppData\Local\Temp\ccf1b4Zx.s:1956   .bss.tone:00000000 $d
C:\Users\vngel\AppData\Local\Temp\ccf1b4Zx.s:1963   .bss.toneKnob:00000000 $d
C:\Users\vngel\AppData\Local\Temp\ccf1b4Zx.s:1970   .data.MAX_FEEDBACK:00000000 $d
C:\Users\vngel\AppData\Local\Temp\ccf1b4Zx.s:1977   .data.drywet_ratio:00000000 $d
C:\Users\vngel\AppData\Local\Temp\ccf1b4Zx.s:1984   .sdram_bss:00000000 $d
                           .group:00000000 _ZN7daisysp7BalanceD5Ev
                           .group:00000000 _ZN7daisysp9CrossFadeD5Ev
                           .group:00000000 _ZN5daisy6SwitchD5Ev
                           .group:00000000 _ZN5daisy9ParameterD5Ev
                           .group:00000000 _ZN5daisy9DaisySeedD5Ev
                           .group:00000000 _ZN10ToneFilterD5Ev

UNDEFINED SYMBOLS
_ZN5daisy6Switch8DebounceEv
_ZN8TapTempo6updateEb
_ZN5daisy9DaisySeed6GetPinEh
_ZN5daisy6Switch4InitE12dsy_gpio_pinf
_ZN5daisy9Parameter7ProcessEv
_ZN6Delayy11setFeedbackERKf
_ZN10ToneFilter7setFreqEf
_ZN8TapTempo6getBPMEv
_ZN5daisy6LoggerILNS_17LoggerDestinationE1EE9PrintLineEPKcz
_ZN6Delayy10toggleHeadERKi
_ZN6Delayy6setBPMEf
_ZN8TapTempo6setBPMEf
_ZN6Delayy7processEf
_ZN10ToneFilter7processEf
_ZN10ToneFilter9getFactorEv
_ZN7daisysp7Balance7ProcessEff
_ZN7daisysp9CrossFade7ProcessERfS1_
_ZN6Delayy7stopAllEv
memset
_ZN5daisy9DaisySeed4InitEb
_ZN5daisy6LoggerILNS_17LoggerDestinationE1EE8StartLogEb
_ZN5daisy9DaisySeed17SetAudioBlockSizeEj
_ZN5daisy9DaisySeed18SetAudioSampleRateENS_9SaiHandle6Config10SampleRateE
_ZN5daisy9DaisySeed10StartAudioEPFvPKPKfPPfjE
_ZN5daisy16AdcChannelConfig10InitSingleE12dsy_gpio_pin
_ZN5daisy9AdcHandle4InitEPNS_16AdcChannelConfigEjNS0_12OverSamplingE
_ZNK5daisy9AdcHandle6GetPtrEh
ARM GAS  C:\Users\vngel\AppData\Local\Temp\ccf1b4Zx.s 			page 71


_ZN5daisy9DaisySeed15AudioSampleRateEv
_ZN5daisy13AnalogControl4InitEPtfbbf
_ZN5daisy9Parameter4InitENS_13AnalogControlEffNS0_5CurveE
_ZN7daisysp7Balance4InitEf
_ZN5daisy9AdcHandle5StartEv
_ZN5daisy6System5DelayEm
__aeabi_atexit
_ZN6DelayyC1Ev
_ZN10ToneFilterC1Ef
_ZN5daisy6System6GetNowEv
__dso_handle
