ARM GAS  C:\Users\vngel\AppData\Local\Temp\cclelx3Y.s 			page 1


   1              		.cpu cortex-m7
   2              		.eabi_attribute 28, 1
   3              		.eabi_attribute 20, 1
   4              		.eabi_attribute 21, 1
   5              		.eabi_attribute 23, 3
   6              		.eabi_attribute 24, 1
   7              		.eabi_attribute 25, 1
   8              		.eabi_attribute 26, 1
   9              		.eabi_attribute 30, 2
  10              		.eabi_attribute 34, 1
  11              		.eabi_attribute 18, 4
  12              		.file	"TapTempo.cpp"
  13              		.text
  14              	.Ltext0:
  15              		.cfi_sections	.debug_frame
  16              		.section	.text._ZN8TapTempo25setSkippedTapThresholdLowEf,"ax",%progbits
  17              		.align	1
  18              		.p2align 2,,3
  19              		.global	_ZN8TapTempo25setSkippedTapThresholdLowEf
  20              		.arch armv7e-m
  21              		.syntax unified
  22              		.thumb
  23              		.thumb_func
  24              		.fpu fpv5-d16
  26              	_ZN8TapTempo25setSkippedTapThresholdLowEf:
  27              	.LVL0:
  28              	.LFB2541:
  29              		.file 1 "TapTempo.cpp"
   1:TapTempo.cpp  **** /*
   2:TapTempo.cpp  ****  * TapTempo.cpp
   3:TapTempo.cpp  ****  * An Arduino library that times consecutive button presses to calculate Beats Per Minute. Corrects
   4:TapTempo.cpp  ****  *
   5:TapTempo.cpp  ****  * Copyright (c) 2016 Damien Clarke
   6:TapTempo.cpp  ****  * 
   7:TapTempo.cpp  ****  * Permission is hereby granted, free of charge, to any person obtaining a copy
   8:TapTempo.cpp  ****  * of this software and associated documentation files (the "Software"), to deal
   9:TapTempo.cpp  ****  * in the Software without restriction, including without limitation the rights
  10:TapTempo.cpp  ****  * to use, copy, modify, merge, publish, distribute, sublicense, and/or sell
  11:TapTempo.cpp  ****  * copies of the Software, and to permit persons to whom the Software is
  12:TapTempo.cpp  ****  * furnished to do so, subject to the following conditions:
  13:TapTempo.cpp  ****  * 
  14:TapTempo.cpp  ****  * The above copyright notice and this permission notice shall be included in all
  15:TapTempo.cpp  ****  * copies or substantial portions of the Software.
  16:TapTempo.cpp  ****  * 
  17:TapTempo.cpp  ****  * THE SOFTWARE IS PROVIDED "AS IS", WITHOUT WARRANTY OF ANY KIND, EXPRESS OR
  18:TapTempo.cpp  ****  * IMPLIED, INCLUDING BUT NOT LIMITED TO THE WARRANTIES OF MERCHANTABILITY,
  19:TapTempo.cpp  ****  * FITNESS FOR A PARTICULAR PURPOSE AND NONINFRINGEMENT. IN NO EVENT SHALL THE
  20:TapTempo.cpp  ****  * AUTHORS OR COPYRIGHT HOLDERS BE LIABLE FOR ANY CLAIM, DAMAGES OR OTHER
  21:TapTempo.cpp  ****  * LIABILITY, WHETHER IN AN ACTION OF CONTRACT, TORT OR OTHERWISE, ARISING FROM,
  22:TapTempo.cpp  ****  * OUT OF OR IN CONNECTION WITH THE SOFTWARE OR THE USE OR OTHER DEALINGS IN THE
  23:TapTempo.cpp  ****  * SOFTWARE.  
  24:TapTempo.cpp  ****  */
  25:TapTempo.cpp  **** 
  26:TapTempo.cpp  **** 
  27:TapTempo.cpp  **** #include "TapTempo.h"
  28:TapTempo.cpp  **** 
  29:TapTempo.cpp  **** 
ARM GAS  C:\Users\vngel\AppData\Local\Temp\cclelx3Y.s 			page 2


  30:TapTempo.cpp  **** void TapTempo::setSkippedTapThresholdLow(float threshold)
  31:TapTempo.cpp  **** {
  30              		.loc 1 31 1 view -0
  31              		.cfi_startproc
  32              		@ args = 0, pretend = 0, frame = 0
  33              		@ frame_needed = 0, uses_anonymous_args = 0
  34              		@ link register save eliminated.
  32:TapTempo.cpp  ****   if(threshold > 1.0 && threshold < 2.0)
  35              		.loc 1 32 3 view .LVU1
  36 0000 F7EE007A 		vmov.f32	s15, #1.0e+0
  37 0004 B4EEE70A 		vcmpe.f32	s0, s15
  38 0008 F1EE10FA 		vmrs	APSR_nzcv, FPSCR
  39 000c 08DD     		ble	.L1
  40              		.loc 1 32 22 is_stmt 0 discriminator 1 view .LVU2
  41 000e F0EE007A 		vmov.f32	s15, #2.0e+0
  42 0012 B4EEE70A 		vcmpe.f32	s0, s15
  43 0016 F1EE10FA 		vmrs	APSR_nzcv, FPSCR
  33:TapTempo.cpp  ****     skippedTapThresholdLow = threshold;
  44              		.loc 1 33 5 is_stmt 1 discriminator 1 view .LVU3
  45              		.loc 1 33 28 is_stmt 0 discriminator 1 view .LVU4
  46 001a 48BF     		it	mi
  47 001c 80ED040A 		vstrmi.32	s0, [r0, #16]
  48              	.L1:
  34:TapTempo.cpp  **** }
  49              		.loc 1 34 1 view .LVU5
  50 0020 7047     		bx	lr
  51              		.cfi_endproc
  52              	.LFE2541:
  54 0022 00BF     		.section	.text._ZN8TapTempo26setSkippedTapThresholdHighEf,"ax",%progbits
  55              		.align	1
  56              		.p2align 2,,3
  57              		.global	_ZN8TapTempo26setSkippedTapThresholdHighEf
  58              		.syntax unified
  59              		.thumb
  60              		.thumb_func
  61              		.fpu fpv5-d16
  63              	_ZN8TapTempo26setSkippedTapThresholdHighEf:
  64              	.LVL1:
  65              	.LFB2542:
  35:TapTempo.cpp  **** 
  36:TapTempo.cpp  **** void TapTempo::setSkippedTapThresholdHigh(float threshold)
  37:TapTempo.cpp  **** {
  66              		.loc 1 37 1 is_stmt 1 view -0
  67              		.cfi_startproc
  68              		@ args = 0, pretend = 0, frame = 0
  69              		@ frame_needed = 0, uses_anonymous_args = 0
  70              		@ link register save eliminated.
  38:TapTempo.cpp  ****   if(threshold > 2.0 && threshold < 4.0)
  71              		.loc 1 38 3 view .LVU7
  72 0000 F0EE007A 		vmov.f32	s15, #2.0e+0
  73 0004 B4EEE70A 		vcmpe.f32	s0, s15
  74 0008 F1EE10FA 		vmrs	APSR_nzcv, FPSCR
  75 000c 08DD     		ble	.L8
  76              		.loc 1 38 22 is_stmt 0 discriminator 1 view .LVU8
  77 000e F1EE007A 		vmov.f32	s15, #4.0e+0
  78 0012 B4EEE70A 		vcmpe.f32	s0, s15
  79 0016 F1EE10FA 		vmrs	APSR_nzcv, FPSCR
ARM GAS  C:\Users\vngel\AppData\Local\Temp\cclelx3Y.s 			page 3


  39:TapTempo.cpp  ****     skippedTapThresholdHigh = threshold;
  80              		.loc 1 39 5 is_stmt 1 discriminator 1 view .LVU9
  81              		.loc 1 39 29 is_stmt 0 discriminator 1 view .LVU10
  82 001a 48BF     		it	mi
  83 001c 80ED050A 		vstrmi.32	s0, [r0, #20]
  84              	.L8:
  40:TapTempo.cpp  **** }
  85              		.loc 1 40 1 view .LVU11
  86 0020 7047     		bx	lr
  87              		.cfi_endproc
  88              	.LFE2542:
  90 0022 00BF     		.section	.text._ZN8TapTempo6getBPMEv,"ax",%progbits
  91              		.align	1
  92              		.p2align 2,,3
  93              		.global	_ZN8TapTempo6getBPMEv
  94              		.syntax unified
  95              		.thumb
  96              		.thumb_func
  97              		.fpu fpv5-d16
  99              	_ZN8TapTempo6getBPMEv:
 100              	.LVL2:
 101              	.LFB2543:
  41:TapTempo.cpp  **** 
  42:TapTempo.cpp  **** float TapTempo::getBPM()
  43:TapTempo.cpp  **** {
 102              		.loc 1 43 1 is_stmt 1 view -0
 103              		.cfi_startproc
 104              		@ args = 0, pretend = 0, frame = 0
 105              		@ frame_needed = 0, uses_anonymous_args = 0
 106              		@ link register save eliminated.
  44:TapTempo.cpp  ****   return 60000.0 / beatLengthMS;
 107              		.loc 1 44 3 view .LVU13
 108              		.loc 1 44 18 is_stmt 0 view .LVU14
 109 0000 90ED097A 		vldr.32	s14, [r0, #36]	@ int
 110 0004 9FED046B 		vldr.64	d6, .L15
 111 0008 B8EE477B 		vcvt.f64.u32	d7, s14
 112 000c 86EE070B 		vdiv.f64	d0, d6, d7
  45:TapTempo.cpp  **** }
 113              		.loc 1 45 1 view .LVU15
 114 0010 B7EEC00B 		vcvt.f32.f64	s0, d0
 115 0014 7047     		bx	lr
 116              	.L16:
 117 0016 00BF     		.align	3
 118              	.L15:
 119 0018 00000000 		.word	0
 120 001c 004CED40 		.word	1089293312
 121              		.cfi_endproc
 122              	.LFE2543:
 124              		.section	.text._ZN8TapTempo6setBPMEf,"ax",%progbits
 125              		.align	1
 126              		.p2align 2,,3
 127              		.global	_ZN8TapTempo6setBPMEf
 128              		.syntax unified
 129              		.thumb
 130              		.thumb_func
 131              		.fpu fpv5-d16
 133              	_ZN8TapTempo6setBPMEf:
ARM GAS  C:\Users\vngel\AppData\Local\Temp\cclelx3Y.s 			page 4


 134              	.LVL3:
 135              	.LFB2544:
  46:TapTempo.cpp  **** 
  47:TapTempo.cpp  **** void TapTempo::setBPM(float bpm)
  48:TapTempo.cpp  **** {
 136              		.loc 1 48 1 is_stmt 1 view -0
 137              		.cfi_startproc
 138              		@ args = 0, pretend = 0, frame = 0
 139              		@ frame_needed = 0, uses_anonymous_args = 0
 140              		@ link register save eliminated.
  49:TapTempo.cpp  ****   beatLengthMS = 60000 / bpm;
 141              		.loc 1 49 3 view .LVU17
 142              		.loc 1 49 24 is_stmt 0 view .LVU18
 143 0000 9FED047A 		vldr.32	s14, .L18
 144 0004 C7EE007A 		vdiv.f32	s15, s14, s0
 145              		.loc 1 49 16 view .LVU19
 146 0008 FCEEE77A 		vcvt.u32.f32	s15, s15
 147 000c C0ED097A 		vstr.32	s15, [r0, #36]	@ int
  50:TapTempo.cpp  **** }
 148              		.loc 1 50 1 view .LVU20
 149 0010 7047     		bx	lr
 150              	.L19:
 151 0012 00BF     		.align	2
 152              	.L18:
 153 0014 00606A47 		.word	1198153728
 154              		.cfi_endproc
 155              	.LFE2544:
 157              		.section	.text._ZN8TapTempo6onBeatEv,"ax",%progbits
 158              		.align	1
 159              		.p2align 2,,3
 160              		.global	_ZN8TapTempo6onBeatEv
 161              		.syntax unified
 162              		.thumb
 163              		.thumb_func
 164              		.fpu fpv5-d16
 166              	_ZN8TapTempo6onBeatEv:
 167              	.LVL4:
 168              	.LFB2545:
  51:TapTempo.cpp  **** 
  52:TapTempo.cpp  **** bool TapTempo::onBeat()
  53:TapTempo.cpp  **** {
 169              		.loc 1 53 1 is_stmt 1 view -0
 170              		.cfi_startproc
 171              		@ args = 0, pretend = 0, frame = 0
 172              		@ frame_needed = 0, uses_anonymous_args = 0
  54:TapTempo.cpp  ****   return fmod((float)millisSinceReset, (float)beatLengthMS) < fmod((float)millisSinceResetOld, (flo
 173              		.loc 1 54 3 view .LVU22
 174              	.LBB18:
 175              	.LBB19:
 176              		.file 2 "c:\\program files\\daisytoolchain\\arm-none-eabi\\include\\c++\\10.2.1\\cmath"
   1:c:\program files\daisytoolchain\arm-none-eabi\include\c++\10.2.1\cmath **** // -*- C++ -*- C forwarding header.
   2:c:\program files\daisytoolchain\arm-none-eabi\include\c++\10.2.1\cmath **** 
   3:c:\program files\daisytoolchain\arm-none-eabi\include\c++\10.2.1\cmath **** // Copyright (C) 1997-2020 Free Software Foundation, Inc.
   4:c:\program files\daisytoolchain\arm-none-eabi\include\c++\10.2.1\cmath **** //
   5:c:\program files\daisytoolchain\arm-none-eabi\include\c++\10.2.1\cmath **** // This file is part of the GNU ISO C++ Library.  This library is free
   6:c:\program files\daisytoolchain\arm-none-eabi\include\c++\10.2.1\cmath **** // software; you can redistribute it and/or modify it under the
   7:c:\program files\daisytoolchain\arm-none-eabi\include\c++\10.2.1\cmath **** // terms of the GNU General Public License as published by the
ARM GAS  C:\Users\vngel\AppData\Local\Temp\cclelx3Y.s 			page 5


   8:c:\program files\daisytoolchain\arm-none-eabi\include\c++\10.2.1\cmath **** // Free Software Foundation; either version 3, or (at your option)
   9:c:\program files\daisytoolchain\arm-none-eabi\include\c++\10.2.1\cmath **** // any later version.
  10:c:\program files\daisytoolchain\arm-none-eabi\include\c++\10.2.1\cmath **** 
  11:c:\program files\daisytoolchain\arm-none-eabi\include\c++\10.2.1\cmath **** // This library is distributed in the hope that it will be useful,
  12:c:\program files\daisytoolchain\arm-none-eabi\include\c++\10.2.1\cmath **** // but WITHOUT ANY WARRANTY; without even the implied warranty of
  13:c:\program files\daisytoolchain\arm-none-eabi\include\c++\10.2.1\cmath **** // MERCHANTABILITY or FITNESS FOR A PARTICULAR PURPOSE.  See the
  14:c:\program files\daisytoolchain\arm-none-eabi\include\c++\10.2.1\cmath **** // GNU General Public License for more details.
  15:c:\program files\daisytoolchain\arm-none-eabi\include\c++\10.2.1\cmath **** 
  16:c:\program files\daisytoolchain\arm-none-eabi\include\c++\10.2.1\cmath **** // Under Section 7 of GPL version 3, you are granted additional
  17:c:\program files\daisytoolchain\arm-none-eabi\include\c++\10.2.1\cmath **** // permissions described in the GCC Runtime Library Exception, version
  18:c:\program files\daisytoolchain\arm-none-eabi\include\c++\10.2.1\cmath **** // 3.1, as published by the Free Software Foundation.
  19:c:\program files\daisytoolchain\arm-none-eabi\include\c++\10.2.1\cmath **** 
  20:c:\program files\daisytoolchain\arm-none-eabi\include\c++\10.2.1\cmath **** // You should have received a copy of the GNU General Public License and
  21:c:\program files\daisytoolchain\arm-none-eabi\include\c++\10.2.1\cmath **** // a copy of the GCC Runtime Library Exception along with this program;
  22:c:\program files\daisytoolchain\arm-none-eabi\include\c++\10.2.1\cmath **** // see the files COPYING3 and COPYING.RUNTIME respectively.  If not, see
  23:c:\program files\daisytoolchain\arm-none-eabi\include\c++\10.2.1\cmath **** // <http://www.gnu.org/licenses/>.
  24:c:\program files\daisytoolchain\arm-none-eabi\include\c++\10.2.1\cmath **** 
  25:c:\program files\daisytoolchain\arm-none-eabi\include\c++\10.2.1\cmath **** /** @file include/cmath
  26:c:\program files\daisytoolchain\arm-none-eabi\include\c++\10.2.1\cmath ****  *  This is a Standard C++ Library file.  You should @c \#include this file
  27:c:\program files\daisytoolchain\arm-none-eabi\include\c++\10.2.1\cmath ****  *  in your programs, rather than any of the @a *.h implementation files.
  28:c:\program files\daisytoolchain\arm-none-eabi\include\c++\10.2.1\cmath ****  *
  29:c:\program files\daisytoolchain\arm-none-eabi\include\c++\10.2.1\cmath ****  *  This is the C++ version of the Standard C Library header @c math.h,
  30:c:\program files\daisytoolchain\arm-none-eabi\include\c++\10.2.1\cmath ****  *  and its contents are (mostly) the same as that header, but are all
  31:c:\program files\daisytoolchain\arm-none-eabi\include\c++\10.2.1\cmath ****  *  contained in the namespace @c std (except for names which are defined
  32:c:\program files\daisytoolchain\arm-none-eabi\include\c++\10.2.1\cmath ****  *  as macros in C).
  33:c:\program files\daisytoolchain\arm-none-eabi\include\c++\10.2.1\cmath ****  */
  34:c:\program files\daisytoolchain\arm-none-eabi\include\c++\10.2.1\cmath **** 
  35:c:\program files\daisytoolchain\arm-none-eabi\include\c++\10.2.1\cmath **** //
  36:c:\program files\daisytoolchain\arm-none-eabi\include\c++\10.2.1\cmath **** // ISO C++ 14882: 26.5  C library
  37:c:\program files\daisytoolchain\arm-none-eabi\include\c++\10.2.1\cmath **** //
  38:c:\program files\daisytoolchain\arm-none-eabi\include\c++\10.2.1\cmath **** 
  39:c:\program files\daisytoolchain\arm-none-eabi\include\c++\10.2.1\cmath **** #pragma GCC system_header
  40:c:\program files\daisytoolchain\arm-none-eabi\include\c++\10.2.1\cmath **** 
  41:c:\program files\daisytoolchain\arm-none-eabi\include\c++\10.2.1\cmath **** #include <bits/c++config.h>
  42:c:\program files\daisytoolchain\arm-none-eabi\include\c++\10.2.1\cmath **** #include <bits/cpp_type_traits.h>
  43:c:\program files\daisytoolchain\arm-none-eabi\include\c++\10.2.1\cmath **** #include <ext/type_traits.h>
  44:c:\program files\daisytoolchain\arm-none-eabi\include\c++\10.2.1\cmath **** #define _GLIBCXX_INCLUDE_NEXT_C_HEADERS
  45:c:\program files\daisytoolchain\arm-none-eabi\include\c++\10.2.1\cmath **** #include_next <math.h>
  46:c:\program files\daisytoolchain\arm-none-eabi\include\c++\10.2.1\cmath **** #undef _GLIBCXX_INCLUDE_NEXT_C_HEADERS
  47:c:\program files\daisytoolchain\arm-none-eabi\include\c++\10.2.1\cmath **** #include <bits/std_abs.h>
  48:c:\program files\daisytoolchain\arm-none-eabi\include\c++\10.2.1\cmath **** 
  49:c:\program files\daisytoolchain\arm-none-eabi\include\c++\10.2.1\cmath **** #ifndef _GLIBCXX_CMATH
  50:c:\program files\daisytoolchain\arm-none-eabi\include\c++\10.2.1\cmath **** #define _GLIBCXX_CMATH 1
  51:c:\program files\daisytoolchain\arm-none-eabi\include\c++\10.2.1\cmath **** 
  52:c:\program files\daisytoolchain\arm-none-eabi\include\c++\10.2.1\cmath **** // Get rid of those macros defined in <math.h> in lieu of real functions.
  53:c:\program files\daisytoolchain\arm-none-eabi\include\c++\10.2.1\cmath **** #undef div
  54:c:\program files\daisytoolchain\arm-none-eabi\include\c++\10.2.1\cmath **** #undef acos
  55:c:\program files\daisytoolchain\arm-none-eabi\include\c++\10.2.1\cmath **** #undef asin
  56:c:\program files\daisytoolchain\arm-none-eabi\include\c++\10.2.1\cmath **** #undef atan
  57:c:\program files\daisytoolchain\arm-none-eabi\include\c++\10.2.1\cmath **** #undef atan2
  58:c:\program files\daisytoolchain\arm-none-eabi\include\c++\10.2.1\cmath **** #undef ceil
  59:c:\program files\daisytoolchain\arm-none-eabi\include\c++\10.2.1\cmath **** #undef cos
  60:c:\program files\daisytoolchain\arm-none-eabi\include\c++\10.2.1\cmath **** #undef cosh
  61:c:\program files\daisytoolchain\arm-none-eabi\include\c++\10.2.1\cmath **** #undef exp
  62:c:\program files\daisytoolchain\arm-none-eabi\include\c++\10.2.1\cmath **** #undef fabs
  63:c:\program files\daisytoolchain\arm-none-eabi\include\c++\10.2.1\cmath **** #undef floor
  64:c:\program files\daisytoolchain\arm-none-eabi\include\c++\10.2.1\cmath **** #undef fmod
ARM GAS  C:\Users\vngel\AppData\Local\Temp\cclelx3Y.s 			page 6


  65:c:\program files\daisytoolchain\arm-none-eabi\include\c++\10.2.1\cmath **** #undef frexp
  66:c:\program files\daisytoolchain\arm-none-eabi\include\c++\10.2.1\cmath **** #undef ldexp
  67:c:\program files\daisytoolchain\arm-none-eabi\include\c++\10.2.1\cmath **** #undef log
  68:c:\program files\daisytoolchain\arm-none-eabi\include\c++\10.2.1\cmath **** #undef log10
  69:c:\program files\daisytoolchain\arm-none-eabi\include\c++\10.2.1\cmath **** #undef modf
  70:c:\program files\daisytoolchain\arm-none-eabi\include\c++\10.2.1\cmath **** #undef pow
  71:c:\program files\daisytoolchain\arm-none-eabi\include\c++\10.2.1\cmath **** #undef sin
  72:c:\program files\daisytoolchain\arm-none-eabi\include\c++\10.2.1\cmath **** #undef sinh
  73:c:\program files\daisytoolchain\arm-none-eabi\include\c++\10.2.1\cmath **** #undef sqrt
  74:c:\program files\daisytoolchain\arm-none-eabi\include\c++\10.2.1\cmath **** #undef tan
  75:c:\program files\daisytoolchain\arm-none-eabi\include\c++\10.2.1\cmath **** #undef tanh
  76:c:\program files\daisytoolchain\arm-none-eabi\include\c++\10.2.1\cmath **** 
  77:c:\program files\daisytoolchain\arm-none-eabi\include\c++\10.2.1\cmath **** extern "C++"
  78:c:\program files\daisytoolchain\arm-none-eabi\include\c++\10.2.1\cmath **** {
  79:c:\program files\daisytoolchain\arm-none-eabi\include\c++\10.2.1\cmath **** namespace std _GLIBCXX_VISIBILITY(default)
  80:c:\program files\daisytoolchain\arm-none-eabi\include\c++\10.2.1\cmath **** {
  81:c:\program files\daisytoolchain\arm-none-eabi\include\c++\10.2.1\cmath **** _GLIBCXX_BEGIN_NAMESPACE_VERSION
  82:c:\program files\daisytoolchain\arm-none-eabi\include\c++\10.2.1\cmath **** 
  83:c:\program files\daisytoolchain\arm-none-eabi\include\c++\10.2.1\cmath ****   using ::acos;
  84:c:\program files\daisytoolchain\arm-none-eabi\include\c++\10.2.1\cmath **** 
  85:c:\program files\daisytoolchain\arm-none-eabi\include\c++\10.2.1\cmath **** #ifndef __CORRECT_ISO_CPP_MATH_H_PROTO
  86:c:\program files\daisytoolchain\arm-none-eabi\include\c++\10.2.1\cmath ****   inline _GLIBCXX_CONSTEXPR float
  87:c:\program files\daisytoolchain\arm-none-eabi\include\c++\10.2.1\cmath ****   acos(float __x)
  88:c:\program files\daisytoolchain\arm-none-eabi\include\c++\10.2.1\cmath ****   { return __builtin_acosf(__x); }
  89:c:\program files\daisytoolchain\arm-none-eabi\include\c++\10.2.1\cmath **** 
  90:c:\program files\daisytoolchain\arm-none-eabi\include\c++\10.2.1\cmath ****   inline _GLIBCXX_CONSTEXPR long double
  91:c:\program files\daisytoolchain\arm-none-eabi\include\c++\10.2.1\cmath ****   acos(long double __x)
  92:c:\program files\daisytoolchain\arm-none-eabi\include\c++\10.2.1\cmath ****   { return __builtin_acosl(__x); }
  93:c:\program files\daisytoolchain\arm-none-eabi\include\c++\10.2.1\cmath **** #endif
  94:c:\program files\daisytoolchain\arm-none-eabi\include\c++\10.2.1\cmath **** 
  95:c:\program files\daisytoolchain\arm-none-eabi\include\c++\10.2.1\cmath ****   template<typename _Tp>
  96:c:\program files\daisytoolchain\arm-none-eabi\include\c++\10.2.1\cmath ****     inline _GLIBCXX_CONSTEXPR
  97:c:\program files\daisytoolchain\arm-none-eabi\include\c++\10.2.1\cmath ****     typename __gnu_cxx::__enable_if<__is_integer<_Tp>::__value, 
  98:c:\program files\daisytoolchain\arm-none-eabi\include\c++\10.2.1\cmath ****                                     double>::__type
  99:c:\program files\daisytoolchain\arm-none-eabi\include\c++\10.2.1\cmath ****     acos(_Tp __x)
 100:c:\program files\daisytoolchain\arm-none-eabi\include\c++\10.2.1\cmath ****     { return __builtin_acos(__x); }
 101:c:\program files\daisytoolchain\arm-none-eabi\include\c++\10.2.1\cmath **** 
 102:c:\program files\daisytoolchain\arm-none-eabi\include\c++\10.2.1\cmath ****   using ::asin;
 103:c:\program files\daisytoolchain\arm-none-eabi\include\c++\10.2.1\cmath **** 
 104:c:\program files\daisytoolchain\arm-none-eabi\include\c++\10.2.1\cmath **** #ifndef __CORRECT_ISO_CPP_MATH_H_PROTO
 105:c:\program files\daisytoolchain\arm-none-eabi\include\c++\10.2.1\cmath ****   inline _GLIBCXX_CONSTEXPR float
 106:c:\program files\daisytoolchain\arm-none-eabi\include\c++\10.2.1\cmath ****   asin(float __x)
 107:c:\program files\daisytoolchain\arm-none-eabi\include\c++\10.2.1\cmath ****   { return __builtin_asinf(__x); }
 108:c:\program files\daisytoolchain\arm-none-eabi\include\c++\10.2.1\cmath **** 
 109:c:\program files\daisytoolchain\arm-none-eabi\include\c++\10.2.1\cmath ****   inline _GLIBCXX_CONSTEXPR long double
 110:c:\program files\daisytoolchain\arm-none-eabi\include\c++\10.2.1\cmath ****   asin(long double __x)
 111:c:\program files\daisytoolchain\arm-none-eabi\include\c++\10.2.1\cmath ****   { return __builtin_asinl(__x); }
 112:c:\program files\daisytoolchain\arm-none-eabi\include\c++\10.2.1\cmath **** #endif
 113:c:\program files\daisytoolchain\arm-none-eabi\include\c++\10.2.1\cmath **** 
 114:c:\program files\daisytoolchain\arm-none-eabi\include\c++\10.2.1\cmath ****   template<typename _Tp>
 115:c:\program files\daisytoolchain\arm-none-eabi\include\c++\10.2.1\cmath ****     inline _GLIBCXX_CONSTEXPR
 116:c:\program files\daisytoolchain\arm-none-eabi\include\c++\10.2.1\cmath ****     typename __gnu_cxx::__enable_if<__is_integer<_Tp>::__value,
 117:c:\program files\daisytoolchain\arm-none-eabi\include\c++\10.2.1\cmath ****                                     double>::__type
 118:c:\program files\daisytoolchain\arm-none-eabi\include\c++\10.2.1\cmath ****     asin(_Tp __x)
 119:c:\program files\daisytoolchain\arm-none-eabi\include\c++\10.2.1\cmath ****     { return __builtin_asin(__x); }
 120:c:\program files\daisytoolchain\arm-none-eabi\include\c++\10.2.1\cmath **** 
 121:c:\program files\daisytoolchain\arm-none-eabi\include\c++\10.2.1\cmath ****   using ::atan;
ARM GAS  C:\Users\vngel\AppData\Local\Temp\cclelx3Y.s 			page 7


 122:c:\program files\daisytoolchain\arm-none-eabi\include\c++\10.2.1\cmath **** 
 123:c:\program files\daisytoolchain\arm-none-eabi\include\c++\10.2.1\cmath **** #ifndef __CORRECT_ISO_CPP_MATH_H_PROTO
 124:c:\program files\daisytoolchain\arm-none-eabi\include\c++\10.2.1\cmath ****   inline _GLIBCXX_CONSTEXPR float
 125:c:\program files\daisytoolchain\arm-none-eabi\include\c++\10.2.1\cmath ****   atan(float __x)
 126:c:\program files\daisytoolchain\arm-none-eabi\include\c++\10.2.1\cmath ****   { return __builtin_atanf(__x); }
 127:c:\program files\daisytoolchain\arm-none-eabi\include\c++\10.2.1\cmath **** 
 128:c:\program files\daisytoolchain\arm-none-eabi\include\c++\10.2.1\cmath ****   inline _GLIBCXX_CONSTEXPR long double
 129:c:\program files\daisytoolchain\arm-none-eabi\include\c++\10.2.1\cmath ****   atan(long double __x)
 130:c:\program files\daisytoolchain\arm-none-eabi\include\c++\10.2.1\cmath ****   { return __builtin_atanl(__x); }
 131:c:\program files\daisytoolchain\arm-none-eabi\include\c++\10.2.1\cmath **** #endif
 132:c:\program files\daisytoolchain\arm-none-eabi\include\c++\10.2.1\cmath **** 
 133:c:\program files\daisytoolchain\arm-none-eabi\include\c++\10.2.1\cmath ****   template<typename _Tp>
 134:c:\program files\daisytoolchain\arm-none-eabi\include\c++\10.2.1\cmath ****     inline _GLIBCXX_CONSTEXPR
 135:c:\program files\daisytoolchain\arm-none-eabi\include\c++\10.2.1\cmath ****     typename __gnu_cxx::__enable_if<__is_integer<_Tp>::__value,
 136:c:\program files\daisytoolchain\arm-none-eabi\include\c++\10.2.1\cmath ****                                     double>::__type
 137:c:\program files\daisytoolchain\arm-none-eabi\include\c++\10.2.1\cmath ****     atan(_Tp __x)
 138:c:\program files\daisytoolchain\arm-none-eabi\include\c++\10.2.1\cmath ****     { return __builtin_atan(__x); }
 139:c:\program files\daisytoolchain\arm-none-eabi\include\c++\10.2.1\cmath **** 
 140:c:\program files\daisytoolchain\arm-none-eabi\include\c++\10.2.1\cmath ****   using ::atan2;
 141:c:\program files\daisytoolchain\arm-none-eabi\include\c++\10.2.1\cmath **** 
 142:c:\program files\daisytoolchain\arm-none-eabi\include\c++\10.2.1\cmath **** #ifndef __CORRECT_ISO_CPP_MATH_H_PROTO
 143:c:\program files\daisytoolchain\arm-none-eabi\include\c++\10.2.1\cmath ****   inline _GLIBCXX_CONSTEXPR float
 144:c:\program files\daisytoolchain\arm-none-eabi\include\c++\10.2.1\cmath ****   atan2(float __y, float __x)
 145:c:\program files\daisytoolchain\arm-none-eabi\include\c++\10.2.1\cmath ****   { return __builtin_atan2f(__y, __x); }
 146:c:\program files\daisytoolchain\arm-none-eabi\include\c++\10.2.1\cmath **** 
 147:c:\program files\daisytoolchain\arm-none-eabi\include\c++\10.2.1\cmath ****   inline _GLIBCXX_CONSTEXPR long double
 148:c:\program files\daisytoolchain\arm-none-eabi\include\c++\10.2.1\cmath ****   atan2(long double __y, long double __x)
 149:c:\program files\daisytoolchain\arm-none-eabi\include\c++\10.2.1\cmath ****   { return __builtin_atan2l(__y, __x); }
 150:c:\program files\daisytoolchain\arm-none-eabi\include\c++\10.2.1\cmath **** #endif
 151:c:\program files\daisytoolchain\arm-none-eabi\include\c++\10.2.1\cmath **** 
 152:c:\program files\daisytoolchain\arm-none-eabi\include\c++\10.2.1\cmath ****   template<typename _Tp, typename _Up>
 153:c:\program files\daisytoolchain\arm-none-eabi\include\c++\10.2.1\cmath ****     inline _GLIBCXX_CONSTEXPR
 154:c:\program files\daisytoolchain\arm-none-eabi\include\c++\10.2.1\cmath ****     typename __gnu_cxx::__promote_2<_Tp, _Up>::__type
 155:c:\program files\daisytoolchain\arm-none-eabi\include\c++\10.2.1\cmath ****     atan2(_Tp __y, _Up __x)
 156:c:\program files\daisytoolchain\arm-none-eabi\include\c++\10.2.1\cmath ****     {
 157:c:\program files\daisytoolchain\arm-none-eabi\include\c++\10.2.1\cmath ****       typedef typename __gnu_cxx::__promote_2<_Tp, _Up>::__type __type;
 158:c:\program files\daisytoolchain\arm-none-eabi\include\c++\10.2.1\cmath ****       return atan2(__type(__y), __type(__x));
 159:c:\program files\daisytoolchain\arm-none-eabi\include\c++\10.2.1\cmath ****     }
 160:c:\program files\daisytoolchain\arm-none-eabi\include\c++\10.2.1\cmath **** 
 161:c:\program files\daisytoolchain\arm-none-eabi\include\c++\10.2.1\cmath ****   using ::ceil;
 162:c:\program files\daisytoolchain\arm-none-eabi\include\c++\10.2.1\cmath **** 
 163:c:\program files\daisytoolchain\arm-none-eabi\include\c++\10.2.1\cmath **** #ifndef __CORRECT_ISO_CPP_MATH_H_PROTO
 164:c:\program files\daisytoolchain\arm-none-eabi\include\c++\10.2.1\cmath ****   inline _GLIBCXX_CONSTEXPR float
 165:c:\program files\daisytoolchain\arm-none-eabi\include\c++\10.2.1\cmath ****   ceil(float __x)
 166:c:\program files\daisytoolchain\arm-none-eabi\include\c++\10.2.1\cmath ****   { return __builtin_ceilf(__x); }
 167:c:\program files\daisytoolchain\arm-none-eabi\include\c++\10.2.1\cmath **** 
 168:c:\program files\daisytoolchain\arm-none-eabi\include\c++\10.2.1\cmath ****   inline _GLIBCXX_CONSTEXPR long double
 169:c:\program files\daisytoolchain\arm-none-eabi\include\c++\10.2.1\cmath ****   ceil(long double __x)
 170:c:\program files\daisytoolchain\arm-none-eabi\include\c++\10.2.1\cmath ****   { return __builtin_ceill(__x); }
 171:c:\program files\daisytoolchain\arm-none-eabi\include\c++\10.2.1\cmath **** #endif
 172:c:\program files\daisytoolchain\arm-none-eabi\include\c++\10.2.1\cmath **** 
 173:c:\program files\daisytoolchain\arm-none-eabi\include\c++\10.2.1\cmath ****   template<typename _Tp>
 174:c:\program files\daisytoolchain\arm-none-eabi\include\c++\10.2.1\cmath ****     inline _GLIBCXX_CONSTEXPR
 175:c:\program files\daisytoolchain\arm-none-eabi\include\c++\10.2.1\cmath ****     typename __gnu_cxx::__enable_if<__is_integer<_Tp>::__value, 
 176:c:\program files\daisytoolchain\arm-none-eabi\include\c++\10.2.1\cmath ****                                     double>::__type
 177:c:\program files\daisytoolchain\arm-none-eabi\include\c++\10.2.1\cmath ****     ceil(_Tp __x)
 178:c:\program files\daisytoolchain\arm-none-eabi\include\c++\10.2.1\cmath ****     { return __builtin_ceil(__x); }
ARM GAS  C:\Users\vngel\AppData\Local\Temp\cclelx3Y.s 			page 8


 179:c:\program files\daisytoolchain\arm-none-eabi\include\c++\10.2.1\cmath **** 
 180:c:\program files\daisytoolchain\arm-none-eabi\include\c++\10.2.1\cmath ****   using ::cos;
 181:c:\program files\daisytoolchain\arm-none-eabi\include\c++\10.2.1\cmath **** 
 182:c:\program files\daisytoolchain\arm-none-eabi\include\c++\10.2.1\cmath **** #ifndef __CORRECT_ISO_CPP_MATH_H_PROTO
 183:c:\program files\daisytoolchain\arm-none-eabi\include\c++\10.2.1\cmath ****   inline _GLIBCXX_CONSTEXPR float
 184:c:\program files\daisytoolchain\arm-none-eabi\include\c++\10.2.1\cmath ****   cos(float __x)
 185:c:\program files\daisytoolchain\arm-none-eabi\include\c++\10.2.1\cmath ****   { return __builtin_cosf(__x); }
 186:c:\program files\daisytoolchain\arm-none-eabi\include\c++\10.2.1\cmath **** 
 187:c:\program files\daisytoolchain\arm-none-eabi\include\c++\10.2.1\cmath ****   inline _GLIBCXX_CONSTEXPR long double
 188:c:\program files\daisytoolchain\arm-none-eabi\include\c++\10.2.1\cmath ****   cos(long double __x)
 189:c:\program files\daisytoolchain\arm-none-eabi\include\c++\10.2.1\cmath ****   { return __builtin_cosl(__x); }
 190:c:\program files\daisytoolchain\arm-none-eabi\include\c++\10.2.1\cmath **** #endif
 191:c:\program files\daisytoolchain\arm-none-eabi\include\c++\10.2.1\cmath **** 
 192:c:\program files\daisytoolchain\arm-none-eabi\include\c++\10.2.1\cmath ****   template<typename _Tp>
 193:c:\program files\daisytoolchain\arm-none-eabi\include\c++\10.2.1\cmath ****     inline _GLIBCXX_CONSTEXPR
 194:c:\program files\daisytoolchain\arm-none-eabi\include\c++\10.2.1\cmath ****     typename __gnu_cxx::__enable_if<__is_integer<_Tp>::__value,
 195:c:\program files\daisytoolchain\arm-none-eabi\include\c++\10.2.1\cmath ****                                     double>::__type
 196:c:\program files\daisytoolchain\arm-none-eabi\include\c++\10.2.1\cmath ****     cos(_Tp __x)
 197:c:\program files\daisytoolchain\arm-none-eabi\include\c++\10.2.1\cmath ****     { return __builtin_cos(__x); }
 198:c:\program files\daisytoolchain\arm-none-eabi\include\c++\10.2.1\cmath **** 
 199:c:\program files\daisytoolchain\arm-none-eabi\include\c++\10.2.1\cmath ****   using ::cosh;
 200:c:\program files\daisytoolchain\arm-none-eabi\include\c++\10.2.1\cmath **** 
 201:c:\program files\daisytoolchain\arm-none-eabi\include\c++\10.2.1\cmath **** #ifndef __CORRECT_ISO_CPP_MATH_H_PROTO
 202:c:\program files\daisytoolchain\arm-none-eabi\include\c++\10.2.1\cmath ****   inline _GLIBCXX_CONSTEXPR float
 203:c:\program files\daisytoolchain\arm-none-eabi\include\c++\10.2.1\cmath ****   cosh(float __x)
 204:c:\program files\daisytoolchain\arm-none-eabi\include\c++\10.2.1\cmath ****   { return __builtin_coshf(__x); }
 205:c:\program files\daisytoolchain\arm-none-eabi\include\c++\10.2.1\cmath **** 
 206:c:\program files\daisytoolchain\arm-none-eabi\include\c++\10.2.1\cmath ****   inline _GLIBCXX_CONSTEXPR long double
 207:c:\program files\daisytoolchain\arm-none-eabi\include\c++\10.2.1\cmath ****   cosh(long double __x)
 208:c:\program files\daisytoolchain\arm-none-eabi\include\c++\10.2.1\cmath ****   { return __builtin_coshl(__x); }
 209:c:\program files\daisytoolchain\arm-none-eabi\include\c++\10.2.1\cmath **** #endif
 210:c:\program files\daisytoolchain\arm-none-eabi\include\c++\10.2.1\cmath **** 
 211:c:\program files\daisytoolchain\arm-none-eabi\include\c++\10.2.1\cmath ****   template<typename _Tp>
 212:c:\program files\daisytoolchain\arm-none-eabi\include\c++\10.2.1\cmath ****     inline _GLIBCXX_CONSTEXPR
 213:c:\program files\daisytoolchain\arm-none-eabi\include\c++\10.2.1\cmath ****     typename __gnu_cxx::__enable_if<__is_integer<_Tp>::__value,
 214:c:\program files\daisytoolchain\arm-none-eabi\include\c++\10.2.1\cmath ****                                     double>::__type
 215:c:\program files\daisytoolchain\arm-none-eabi\include\c++\10.2.1\cmath ****     cosh(_Tp __x)
 216:c:\program files\daisytoolchain\arm-none-eabi\include\c++\10.2.1\cmath ****     { return __builtin_cosh(__x); }
 217:c:\program files\daisytoolchain\arm-none-eabi\include\c++\10.2.1\cmath **** 
 218:c:\program files\daisytoolchain\arm-none-eabi\include\c++\10.2.1\cmath ****   using ::exp;
 219:c:\program files\daisytoolchain\arm-none-eabi\include\c++\10.2.1\cmath **** 
 220:c:\program files\daisytoolchain\arm-none-eabi\include\c++\10.2.1\cmath **** #ifndef __CORRECT_ISO_CPP_MATH_H_PROTO
 221:c:\program files\daisytoolchain\arm-none-eabi\include\c++\10.2.1\cmath ****   inline _GLIBCXX_CONSTEXPR float
 222:c:\program files\daisytoolchain\arm-none-eabi\include\c++\10.2.1\cmath ****   exp(float __x)
 223:c:\program files\daisytoolchain\arm-none-eabi\include\c++\10.2.1\cmath ****   { return __builtin_expf(__x); }
 224:c:\program files\daisytoolchain\arm-none-eabi\include\c++\10.2.1\cmath **** 
 225:c:\program files\daisytoolchain\arm-none-eabi\include\c++\10.2.1\cmath ****   inline _GLIBCXX_CONSTEXPR long double
 226:c:\program files\daisytoolchain\arm-none-eabi\include\c++\10.2.1\cmath ****   exp(long double __x)
 227:c:\program files\daisytoolchain\arm-none-eabi\include\c++\10.2.1\cmath ****   { return __builtin_expl(__x); }
 228:c:\program files\daisytoolchain\arm-none-eabi\include\c++\10.2.1\cmath **** #endif
 229:c:\program files\daisytoolchain\arm-none-eabi\include\c++\10.2.1\cmath **** 
 230:c:\program files\daisytoolchain\arm-none-eabi\include\c++\10.2.1\cmath ****   template<typename _Tp>
 231:c:\program files\daisytoolchain\arm-none-eabi\include\c++\10.2.1\cmath ****     inline _GLIBCXX_CONSTEXPR
 232:c:\program files\daisytoolchain\arm-none-eabi\include\c++\10.2.1\cmath ****     typename __gnu_cxx::__enable_if<__is_integer<_Tp>::__value,
 233:c:\program files\daisytoolchain\arm-none-eabi\include\c++\10.2.1\cmath ****                                     double>::__type
 234:c:\program files\daisytoolchain\arm-none-eabi\include\c++\10.2.1\cmath ****     exp(_Tp __x)
 235:c:\program files\daisytoolchain\arm-none-eabi\include\c++\10.2.1\cmath ****     { return __builtin_exp(__x); }
ARM GAS  C:\Users\vngel\AppData\Local\Temp\cclelx3Y.s 			page 9


 236:c:\program files\daisytoolchain\arm-none-eabi\include\c++\10.2.1\cmath **** 
 237:c:\program files\daisytoolchain\arm-none-eabi\include\c++\10.2.1\cmath ****   using ::fabs;
 238:c:\program files\daisytoolchain\arm-none-eabi\include\c++\10.2.1\cmath **** 
 239:c:\program files\daisytoolchain\arm-none-eabi\include\c++\10.2.1\cmath **** #ifndef __CORRECT_ISO_CPP_MATH_H_PROTO
 240:c:\program files\daisytoolchain\arm-none-eabi\include\c++\10.2.1\cmath ****   inline _GLIBCXX_CONSTEXPR float
 241:c:\program files\daisytoolchain\arm-none-eabi\include\c++\10.2.1\cmath ****   fabs(float __x)
 242:c:\program files\daisytoolchain\arm-none-eabi\include\c++\10.2.1\cmath ****   { return __builtin_fabsf(__x); }
 243:c:\program files\daisytoolchain\arm-none-eabi\include\c++\10.2.1\cmath **** 
 244:c:\program files\daisytoolchain\arm-none-eabi\include\c++\10.2.1\cmath ****   inline _GLIBCXX_CONSTEXPR long double
 245:c:\program files\daisytoolchain\arm-none-eabi\include\c++\10.2.1\cmath ****   fabs(long double __x)
 246:c:\program files\daisytoolchain\arm-none-eabi\include\c++\10.2.1\cmath ****   { return __builtin_fabsl(__x); }
 247:c:\program files\daisytoolchain\arm-none-eabi\include\c++\10.2.1\cmath **** #endif
 248:c:\program files\daisytoolchain\arm-none-eabi\include\c++\10.2.1\cmath **** 
 249:c:\program files\daisytoolchain\arm-none-eabi\include\c++\10.2.1\cmath ****   template<typename _Tp>
 250:c:\program files\daisytoolchain\arm-none-eabi\include\c++\10.2.1\cmath ****     inline _GLIBCXX_CONSTEXPR
 251:c:\program files\daisytoolchain\arm-none-eabi\include\c++\10.2.1\cmath ****     typename __gnu_cxx::__enable_if<__is_integer<_Tp>::__value,
 252:c:\program files\daisytoolchain\arm-none-eabi\include\c++\10.2.1\cmath ****                                     double>::__type
 253:c:\program files\daisytoolchain\arm-none-eabi\include\c++\10.2.1\cmath ****     fabs(_Tp __x)
 254:c:\program files\daisytoolchain\arm-none-eabi\include\c++\10.2.1\cmath ****     { return __builtin_fabs(__x); }
 255:c:\program files\daisytoolchain\arm-none-eabi\include\c++\10.2.1\cmath **** 
 256:c:\program files\daisytoolchain\arm-none-eabi\include\c++\10.2.1\cmath ****   using ::floor;
 257:c:\program files\daisytoolchain\arm-none-eabi\include\c++\10.2.1\cmath **** 
 258:c:\program files\daisytoolchain\arm-none-eabi\include\c++\10.2.1\cmath **** #ifndef __CORRECT_ISO_CPP_MATH_H_PROTO
 259:c:\program files\daisytoolchain\arm-none-eabi\include\c++\10.2.1\cmath ****   inline _GLIBCXX_CONSTEXPR float
 260:c:\program files\daisytoolchain\arm-none-eabi\include\c++\10.2.1\cmath ****   floor(float __x)
 261:c:\program files\daisytoolchain\arm-none-eabi\include\c++\10.2.1\cmath ****   { return __builtin_floorf(__x); }
 262:c:\program files\daisytoolchain\arm-none-eabi\include\c++\10.2.1\cmath **** 
 263:c:\program files\daisytoolchain\arm-none-eabi\include\c++\10.2.1\cmath ****   inline _GLIBCXX_CONSTEXPR long double
 264:c:\program files\daisytoolchain\arm-none-eabi\include\c++\10.2.1\cmath ****   floor(long double __x)
 265:c:\program files\daisytoolchain\arm-none-eabi\include\c++\10.2.1\cmath ****   { return __builtin_floorl(__x); }
 266:c:\program files\daisytoolchain\arm-none-eabi\include\c++\10.2.1\cmath **** #endif
 267:c:\program files\daisytoolchain\arm-none-eabi\include\c++\10.2.1\cmath **** 
 268:c:\program files\daisytoolchain\arm-none-eabi\include\c++\10.2.1\cmath ****   template<typename _Tp>
 269:c:\program files\daisytoolchain\arm-none-eabi\include\c++\10.2.1\cmath ****     inline _GLIBCXX_CONSTEXPR
 270:c:\program files\daisytoolchain\arm-none-eabi\include\c++\10.2.1\cmath ****     typename __gnu_cxx::__enable_if<__is_integer<_Tp>::__value,
 271:c:\program files\daisytoolchain\arm-none-eabi\include\c++\10.2.1\cmath ****                                     double>::__type
 272:c:\program files\daisytoolchain\arm-none-eabi\include\c++\10.2.1\cmath ****     floor(_Tp __x)
 273:c:\program files\daisytoolchain\arm-none-eabi\include\c++\10.2.1\cmath ****     { return __builtin_floor(__x); }
 274:c:\program files\daisytoolchain\arm-none-eabi\include\c++\10.2.1\cmath **** 
 275:c:\program files\daisytoolchain\arm-none-eabi\include\c++\10.2.1\cmath ****   using ::fmod;
 276:c:\program files\daisytoolchain\arm-none-eabi\include\c++\10.2.1\cmath **** 
 277:c:\program files\daisytoolchain\arm-none-eabi\include\c++\10.2.1\cmath **** #ifndef __CORRECT_ISO_CPP_MATH_H_PROTO
 278:c:\program files\daisytoolchain\arm-none-eabi\include\c++\10.2.1\cmath ****   inline _GLIBCXX_CONSTEXPR float
 279:c:\program files\daisytoolchain\arm-none-eabi\include\c++\10.2.1\cmath ****   fmod(float __x, float __y)
 280:c:\program files\daisytoolchain\arm-none-eabi\include\c++\10.2.1\cmath ****   { return __builtin_fmodf(__x, __y); }
 177              		.loc 2 280 27 is_stmt 0 view .LVU23
 178 0000 D0ED097A 		vldr.32	s15, [r0, #36]	@ int
 179 0004 F8EE670A 		vcvt.f32.u32	s1, s15
 180 0008 D0ED077A 		vldr.32	s15, [r0, #28]	@ int
 181              	.LBE19:
 182              	.LBE18:
  53:TapTempo.cpp  ****   return fmod((float)millisSinceReset, (float)beatLengthMS) < fmod((float)millisSinceResetOld, (flo
 183              		.loc 1 53 1 view .LVU24
 184 000c 10B5     		push	{r4, lr}
 185              		.cfi_def_cfa_offset 8
 186              		.cfi_offset 4, -8
 187              		.cfi_offset 14, -4
ARM GAS  C:\Users\vngel\AppData\Local\Temp\cclelx3Y.s 			page 10


 188 000e 0446     		mov	r4, r0
 189              	.LVL5:
 190              	.LBB23:
 191              	.LBI18:
 279:c:\program files\daisytoolchain\arm-none-eabi\include\c++\10.2.1\cmath ****   { return __builtin_fmodf(__x, __y); }
 192              		.loc 2 279 3 is_stmt 1 view .LVU25
 193              	.LBB20:
 194              		.loc 2 280 5 view .LVU26
 195              		.loc 2 280 27 is_stmt 0 view .LVU27
 196 0010 B8EE670A 		vcvt.f32.u32	s0, s15
 197              	.LBE20:
 198              	.LBE23:
  53:TapTempo.cpp  ****   return fmod((float)millisSinceReset, (float)beatLengthMS) < fmod((float)millisSinceResetOld, (flo
 199              		.loc 1 53 1 view .LVU28
 200 0014 2DED028B 		vpush.64	{d8}
 201              		.cfi_def_cfa_offset 16
 202              		.cfi_offset 80, -16
 203              		.cfi_offset 81, -12
 204              	.LBB24:
 205              	.LBB21:
 206              		.loc 2 280 27 view .LVU29
 207 0018 FFF7FEFF 		bl	fmodf
 208              	.LVL6:
 209              		.loc 2 280 27 view .LVU30
 210              	.LBE21:
 211              	.LBE24:
 212              		.loc 1 54 67 view .LVU31
 213 001c 236A     		ldr	r3, [r4, #32]
 214              	.LBB25:
 215              	.LBB22:
 216              		.loc 2 280 27 view .LVU32
 217 001e B0EE408A 		vmov.f32	s16, s0
 218              	.LBE22:
 219              	.LBE25:
 220              		.loc 1 54 67 view .LVU33
 221 0022 D4ED090A 		vldr.32	s1, [r4, #36]	@ int
 222              	.LVL7:
 223              	.LBB26:
 224              	.LBI26:
 279:c:\program files\daisytoolchain\arm-none-eabi\include\c++\10.2.1\cmath ****   { return __builtin_fmodf(__x, __y); }
 225              		.loc 2 279 3 is_stmt 1 view .LVU34
 226              	.LBB27:
 227              		.loc 2 280 5 view .LVU35
 228              		.loc 2 280 27 is_stmt 0 view .LVU36
 229 0026 07EE903A 		vmov	s15, r3	@ int
 230 002a F8EE600A 		vcvt.f32.u32	s1, s1
 231 002e B8EE670A 		vcvt.f32.u32	s0, s15
 232 0032 FFF7FEFF 		bl	fmodf
 233              	.LVL8:
 234              		.loc 2 280 27 view .LVU37
 235              	.LBE27:
 236              	.LBE26:
 237              		.loc 1 54 115 view .LVU38
 238 0036 B4EEC80A 		vcmpe.f32	s0, s16
  55:TapTempo.cpp  **** }
 239              		.loc 1 55 1 view .LVU39
 240 003a BDEC028B 		vldm	sp!, {d8}
ARM GAS  C:\Users\vngel\AppData\Local\Temp\cclelx3Y.s 			page 11


 241              		.cfi_restore 80
 242              		.cfi_restore 81
 243              		.cfi_def_cfa_offset 8
  54:TapTempo.cpp  **** }
 244              		.loc 1 54 115 view .LVU40
 245 003e F1EE10FA 		vmrs	APSR_nzcv, FPSCR
 246              		.loc 1 55 1 view .LVU41
 247 0042 CCBF     		ite	gt
 248 0044 0120     		movgt	r0, #1
 249 0046 0020     		movle	r0, #0
 250 0048 10BD     		pop	{r4, pc}
 251              		.loc 1 55 1 view .LVU42
 252              		.cfi_endproc
 253              	.LFE2545:
 255 004a 00BF     		.section	.text._ZN8TapTempo13isChainActiveEv,"ax",%progbits
 256              		.align	1
 257              		.p2align 2,,3
 258              		.global	_ZN8TapTempo13isChainActiveEv
 259              		.syntax unified
 260              		.thumb
 261              		.thumb_func
 262              		.fpu fpv5-d16
 264              	_ZN8TapTempo13isChainActiveEv:
 265              	.LVL9:
 266              	.LFB2546:
  56:TapTempo.cpp  **** 
  57:TapTempo.cpp  **** bool TapTempo::isChainActive()
  58:TapTempo.cpp  **** {
 267              		.loc 1 58 1 is_stmt 1 view -0
 268              		.cfi_startproc
 269              		@ args = 0, pretend = 0, frame = 0
 270              		@ frame_needed = 0, uses_anonymous_args = 0
  59:TapTempo.cpp  ****   return isChainActive(daisy::System::GetNow());
 271              		.loc 1 59 3 view .LVU44
  58:TapTempo.cpp  ****   return isChainActive(daisy::System::GetNow());
 272              		.loc 1 58 1 is_stmt 0 view .LVU45
 273 0000 10B5     		push	{r4, lr}
 274              		.cfi_def_cfa_offset 8
 275              		.cfi_offset 4, -8
 276              		.cfi_offset 14, -4
  58:TapTempo.cpp  ****   return isChainActive(daisy::System::GetNow());
 277              		.loc 1 58 1 view .LVU46
 278 0002 0446     		mov	r4, r0
 279              		.loc 1 59 23 view .LVU47
 280 0004 FFF7FEFF 		bl	_ZN5daisy6System6GetNowEv
 281              	.LVL10:
 282              	.LBB28:
 283              	.LBB29:
  60:TapTempo.cpp  **** }
  61:TapTempo.cpp  **** 
  62:TapTempo.cpp  **** bool TapTempo::isChainActive(unsigned long ms)
  63:TapTempo.cpp  **** {
  64:TapTempo.cpp  ****   return lastTapMS + maxBeatLengthMS > ms && lastTapMS + (beatLengthMS * beatsUntilChainReset) > ms
 284              		.loc 1 64 10 view .LVU48
 285 0008 E26A     		ldr	r2, [r4, #44]
 286              		.loc 1 64 20 view .LVU49
 287 000a 2368     		ldr	r3, [r4]
ARM GAS  C:\Users\vngel\AppData\Local\Temp\cclelx3Y.s 			page 12


 288              	.LVL11:
 289              		.loc 1 64 20 view .LVU50
 290              	.LBE29:
 291              	.LBI28:
  62:TapTempo.cpp  **** {
 292              		.loc 1 62 6 is_stmt 1 view .LVU51
 293              	.LBB30:
 294              		.loc 1 64 3 view .LVU52
 295              		.loc 1 64 20 is_stmt 0 view .LVU53
 296 000c 1344     		add	r3, r3, r2
 297              		.loc 1 64 43 view .LVU54
 298 000e 9842     		cmp	r0, r3
 299 0010 08D2     		bcs	.L24
 300              		.loc 1 64 72 view .LVU55
 301 0012 636A     		ldr	r3, [r4, #36]
 302 0014 A168     		ldr	r1, [r4, #8]
 303              		.loc 1 64 56 view .LVU56
 304 0016 01FB0322 		mla	r2, r1, r3, r2
 305              		.loc 1 64 43 view .LVU57
 306 001a 9042     		cmp	r0, r2
 307 001c 2CBF     		ite	cs
 308 001e 0020     		movcs	r0, #0
 309              	.LVL12:
 310              		.loc 1 64 43 view .LVU58
 311 0020 0120     		movcc	r0, #1
 312              	.LVL13:
 313              		.loc 1 64 43 view .LVU59
 314              	.LBE30:
 315              	.LBE28:
  60:TapTempo.cpp  **** }
 316              		.loc 1 60 1 view .LVU60
 317 0022 10BD     		pop	{r4, pc}
 318              	.LVL14:
 319              	.L24:
 320              	.LBB32:
 321              	.LBB31:
 322              		.loc 1 64 43 view .LVU61
 323 0024 0020     		movs	r0, #0
 324              	.LVL15:
 325              		.loc 1 64 43 view .LVU62
 326              	.LBE31:
 327              	.LBE32:
  60:TapTempo.cpp  **** }
 328              		.loc 1 60 1 view .LVU63
 329 0026 10BD     		pop	{r4, pc}
  60:TapTempo.cpp  **** }
 330              		.loc 1 60 1 view .LVU64
 331              		.cfi_endproc
 332              	.LFE2546:
 334              		.section	.text._ZN8TapTempo13isChainActiveEm,"ax",%progbits
 335              		.align	1
 336              		.p2align 2,,3
 337              		.global	_ZN8TapTempo13isChainActiveEm
 338              		.syntax unified
 339              		.thumb
 340              		.thumb_func
 341              		.fpu fpv5-d16
ARM GAS  C:\Users\vngel\AppData\Local\Temp\cclelx3Y.s 			page 13


 343              	_ZN8TapTempo13isChainActiveEm:
 344              	.LVL16:
 345              	.LFB2547:
  63:TapTempo.cpp  ****   return lastTapMS + maxBeatLengthMS > ms && lastTapMS + (beatLengthMS * beatsUntilChainReset) > ms
 346              		.loc 1 63 1 is_stmt 1 view -0
 347              		.cfi_startproc
 348              		@ args = 0, pretend = 0, frame = 0
 349              		@ frame_needed = 0, uses_anonymous_args = 0
 350              		@ link register save eliminated.
 351              		.loc 1 64 3 view .LVU66
 352              		.loc 1 64 10 is_stmt 0 view .LVU67
 353 0000 C36A     		ldr	r3, [r0, #44]
 354              		.loc 1 64 20 view .LVU68
 355 0002 0268     		ldr	r2, [r0]
 356 0004 1A44     		add	r2, r2, r3
 357              		.loc 1 64 43 view .LVU69
 358 0006 8A42     		cmp	r2, r1
 359 0008 08D9     		bls	.L28
 360              		.loc 1 64 72 discriminator 1 view .LVU70
 361 000a 426A     		ldr	r2, [r0, #36]
 362 000c 8068     		ldr	r0, [r0, #8]
 363              	.LVL17:
 364              		.loc 1 64 56 discriminator 1 view .LVU71
 365 000e 00FB0233 		mla	r3, r0, r2, r3
 366              		.loc 1 64 43 discriminator 1 view .LVU72
 367 0012 8B42     		cmp	r3, r1
 368 0014 94BF     		ite	ls
 369 0016 0020     		movls	r0, #0
 370 0018 0120     		movhi	r0, #1
 371 001a 7047     		bx	lr
 372              	.LVL18:
 373              	.L28:
 374              		.loc 1 64 43 view .LVU73
 375 001c 0020     		movs	r0, #0
 376              	.LVL19:
  65:TapTempo.cpp  **** }
 377              		.loc 1 65 1 view .LVU74
 378 001e 7047     		bx	lr
 379              		.cfi_endproc
 380              	.LFE2547:
 382              		.section	.text._ZN8TapTempo12beatProgressEv,"ax",%progbits
 383              		.align	1
 384              		.p2align 2,,3
 385              		.global	_ZN8TapTempo12beatProgressEv
 386              		.syntax unified
 387              		.thumb
 388              		.thumb_func
 389              		.fpu fpv5-d16
 391              	_ZN8TapTempo12beatProgressEv:
 392              	.LVL20:
 393              	.LFB2548:
  66:TapTempo.cpp  **** 
  67:TapTempo.cpp  **** float TapTempo::beatProgress()
  68:TapTempo.cpp  **** {
 394              		.loc 1 68 1 is_stmt 1 view -0
 395              		.cfi_startproc
 396              		@ args = 0, pretend = 0, frame = 0
ARM GAS  C:\Users\vngel\AppData\Local\Temp\cclelx3Y.s 			page 14


 397              		@ frame_needed = 0, uses_anonymous_args = 0
  69:TapTempo.cpp  ****   return fmod((float)millisSinceReset / (float)beatLengthMS, 1.0);
 398              		.loc 1 69 3 view .LVU76
 399              		.loc 1 69 15 is_stmt 0 view .LVU77
 400 0000 90ED077A 		vldr.32	s14, [r0, #28]	@ int
 401              	.LBB33:
 402              	.LBB34:
 281:c:\program files\daisytoolchain\arm-none-eabi\include\c++\10.2.1\cmath **** 
 282:c:\program files\daisytoolchain\arm-none-eabi\include\c++\10.2.1\cmath ****   inline _GLIBCXX_CONSTEXPR long double
 283:c:\program files\daisytoolchain\arm-none-eabi\include\c++\10.2.1\cmath ****   fmod(long double __x, long double __y)
 284:c:\program files\daisytoolchain\arm-none-eabi\include\c++\10.2.1\cmath ****   { return __builtin_fmodl(__x, __y); }
 285:c:\program files\daisytoolchain\arm-none-eabi\include\c++\10.2.1\cmath **** #endif
 286:c:\program files\daisytoolchain\arm-none-eabi\include\c++\10.2.1\cmath **** 
 287:c:\program files\daisytoolchain\arm-none-eabi\include\c++\10.2.1\cmath ****   template<typename _Tp, typename _Up>
 288:c:\program files\daisytoolchain\arm-none-eabi\include\c++\10.2.1\cmath ****     inline _GLIBCXX_CONSTEXPR
 289:c:\program files\daisytoolchain\arm-none-eabi\include\c++\10.2.1\cmath ****     typename __gnu_cxx::__promote_2<_Tp, _Up>::__type
 290:c:\program files\daisytoolchain\arm-none-eabi\include\c++\10.2.1\cmath ****     fmod(_Tp __x, _Up __y)
 291:c:\program files\daisytoolchain\arm-none-eabi\include\c++\10.2.1\cmath ****     {
 292:c:\program files\daisytoolchain\arm-none-eabi\include\c++\10.2.1\cmath ****       typedef typename __gnu_cxx::__promote_2<_Tp, _Up>::__type __type;
 293:c:\program files\daisytoolchain\arm-none-eabi\include\c++\10.2.1\cmath ****       return fmod(__type(__x), __type(__y));
 403              		.loc 2 293 18 view .LVU78
 404 0004 B7EE001B 		vmov.f64	d1, #1.0e+0
 405              	.LVL21:
 406              		.loc 2 293 18 view .LVU79
 407              	.LBE34:
 408              	.LBI33:
 290:c:\program files\daisytoolchain\arm-none-eabi\include\c++\10.2.1\cmath ****     {
 409              		.loc 2 290 5 is_stmt 1 view .LVU80
 410              	.LBE33:
 411              		.loc 1 69 41 is_stmt 0 view .LVU81
 412 0008 D0ED097A 		vldr.32	s15, [r0, #36]	@ int
 413              		.loc 1 69 15 view .LVU82
 414 000c B8EE477A 		vcvt.f32.u32	s14, s14
 415              	.LVL22:
 416              		.loc 1 69 41 view .LVU83
 417 0010 F8EE677A 		vcvt.f32.u32	s15, s15
  68:TapTempo.cpp  ****   return fmod((float)millisSinceReset / (float)beatLengthMS, 1.0);
 418              		.loc 1 68 1 view .LVU84
 419 0014 08B5     		push	{r3, lr}
 420              		.cfi_def_cfa_offset 8
 421              		.cfi_offset 3, -8
 422              		.cfi_offset 14, -4
 423              		.loc 1 69 14 view .LVU85
 424 0016 87EE270A 		vdiv.f32	s0, s14, s15
 425              	.LVL23:
 426              	.LBB36:
 427              	.LBB35:
 428              		.loc 2 293 18 view .LVU86
 429 001a B7EEC00A 		vcvt.f64.f32	d0, s0
 430              	.LVL24:
 431              		.loc 2 293 18 view .LVU87
 432 001e FFF7FEFF 		bl	fmod
 433              	.LVL25:
 434              		.loc 2 293 18 view .LVU88
 435              	.LBE35:
 436              	.LBE36:
  70:TapTempo.cpp  **** }
ARM GAS  C:\Users\vngel\AppData\Local\Temp\cclelx3Y.s 			page 15


 437              		.loc 1 70 1 view .LVU89
 438 0022 B7EEC00B 		vcvt.f32.f64	s0, d0
 439 0026 08BD     		pop	{r3, pc}
 440              		.cfi_endproc
 441              	.LFE2548:
 443              		.section	.text._ZN8TapTempo13addTapToChainEm,"ax",%progbits
 444              		.align	1
 445              		.p2align 2,,3
 446              		.global	_ZN8TapTempo13addTapToChainEm
 447              		.syntax unified
 448              		.thumb
 449              		.thumb_func
 450              		.fpu fpv5-d16
 452              	_ZN8TapTempo13addTapToChainEm:
 453              	.LVL26:
 454              	.LFB2551:
  71:TapTempo.cpp  **** 
  72:TapTempo.cpp  **** void TapTempo::update(bool buttonDown)
  73:TapTempo.cpp  **** {
  74:TapTempo.cpp  ****   unsigned long ms = daisy::System::GetNow();
  75:TapTempo.cpp  **** 
  76:TapTempo.cpp  ****   // if a tap has occured...
  77:TapTempo.cpp  ****   if(buttonDown && !buttonDownOld)
  78:TapTempo.cpp  ****     tap(ms);
  79:TapTempo.cpp  **** 
  80:TapTempo.cpp  ****   buttonDownOld = buttonDown;
  81:TapTempo.cpp  ****   millisSinceResetOld = millisSinceReset;
  82:TapTempo.cpp  ****   millisSinceReset = ms - lastResetMS;
  83:TapTempo.cpp  **** }
  84:TapTempo.cpp  **** 
  85:TapTempo.cpp  **** void TapTempo::tap(unsigned long ms)
  86:TapTempo.cpp  **** {
  87:TapTempo.cpp  ****   // start a new tap chain if last tap was over an amount of beats ago
  88:TapTempo.cpp  ****   if(!isChainActive(ms))
  89:TapTempo.cpp  ****     resetTapChain(ms);
  90:TapTempo.cpp  **** 
  91:TapTempo.cpp  ****   addTapToChain(ms);
  92:TapTempo.cpp  **** }
  93:TapTempo.cpp  **** 
  94:TapTempo.cpp  **** void TapTempo::addTapToChain(unsigned long ms)
  95:TapTempo.cpp  **** {
 455              		.loc 1 95 1 is_stmt 1 view -0
 456              		.cfi_startproc
 457              		@ args = 0, pretend = 0, frame = 0
 458              		@ frame_needed = 0, uses_anonymous_args = 0
  96:TapTempo.cpp  ****   // get time since last tap
  97:TapTempo.cpp  ****   unsigned long duration = ms - lastTapMS;
 459              		.loc 1 97 3 view .LVU91
  98:TapTempo.cpp  **** 
  99:TapTempo.cpp  ****   // reset beat to occur right now
 100:TapTempo.cpp  ****   lastTapMS = ms;
 101:TapTempo.cpp  **** 
 102:TapTempo.cpp  ****   tapsInChain++;
 460              		.loc 1 102 3 is_stmt 0 view .LVU92
 461 0000 C26D     		ldr	r2, [r0, #92]
 462              		.loc 1 102 14 view .LVU93
 463 0002 531C     		adds	r3, r2, #1
ARM GAS  C:\Users\vngel\AppData\Local\Temp\cclelx3Y.s 			page 16


  95:TapTempo.cpp  ****   // get time since last tap
 464              		.loc 1 95 1 view .LVU94
 465 0004 10B5     		push	{r4, lr}
 466              		.cfi_def_cfa_offset 8
 467              		.cfi_offset 4, -8
 468              		.cfi_offset 14, -4
 103:TapTempo.cpp  ****   if(tapsInChain == 1)
 469              		.loc 1 103 3 view .LVU95
 470 0006 012B     		cmp	r3, #1
  97:TapTempo.cpp  **** 
 471              		.loc 1 97 17 view .LVU96
 472 0008 C46A     		ldr	r4, [r0, #44]
 102:TapTempo.cpp  ****   if(tapsInChain == 1)
 473              		.loc 1 102 14 view .LVU97
 474 000a C365     		str	r3, [r0, #92]
 100:TapTempo.cpp  **** 
 475              		.loc 1 100 13 view .LVU98
 476 000c C162     		str	r1, [r0, #44]
  97:TapTempo.cpp  **** 
 477              		.loc 1 97 17 view .LVU99
 478 000e A1EB0401 		sub	r1, r1, r4
 479              	.LVL27:
 100:TapTempo.cpp  **** 
 480              		.loc 1 100 3 is_stmt 1 view .LVU100
 102:TapTempo.cpp  ****   if(tapsInChain == 1)
 481              		.loc 1 102 3 view .LVU101
 482              		.loc 1 103 3 view .LVU102
 483 0012 2CD0     		beq	.L31
 104:TapTempo.cpp  ****     return;
 105:TapTempo.cpp  ****   
 106:TapTempo.cpp  ****   // detect if last duration was approximately twice the length of the current beat length
 107:TapTempo.cpp  ****   // and if so then we've simply missed a beat and can halve the duration to get the real beat leng
 108:TapTempo.cpp  ****   if(skippedTapDetection
 484              		.loc 1 108 3 view .LVU103
 109:TapTempo.cpp  ****      && tapsInChain > 2
 485              		.loc 1 109 6 is_stmt 0 view .LVU104
 486 0014 90F86040 		ldrb	r4, [r0, #96]	@ zero_extendqisi2
 487 0018 022B     		cmp	r3, #2
 488 001a D4BF     		ite	le
 489 001c 0024     		movle	r4, #0
 490 001e 04F00104 		andgt	r4, r4, #1
 491 0022 2CBB     		cbnz	r4, .L55
 492              	.L33:
 110:TapTempo.cpp  ****      && !lastTapSkipped
 111:TapTempo.cpp  ****      && duration > beatLengthMS * skippedTapThresholdLow
 112:TapTempo.cpp  ****      && duration < beatLengthMS * skippedTapThresholdHigh)
 113:TapTempo.cpp  ****   {
 114:TapTempo.cpp  ****     duration = duration >> 1;
 115:TapTempo.cpp  ****     lastTapSkipped = true;
 116:TapTempo.cpp  ****   }
 117:TapTempo.cpp  ****   else
 118:TapTempo.cpp  ****   {
 119:TapTempo.cpp  ****     lastTapSkipped = false;
 120:TapTempo.cpp  ****   }
 121:TapTempo.cpp  ****   
 122:TapTempo.cpp  ****   tapDurations[tapDurationIndex] = duration;
 493              		.loc 1 122 16 view .LVU105
ARM GAS  C:\Users\vngel\AppData\Local\Temp\cclelx3Y.s 			page 17


 494 0024 836D     		ldr	r3, [r0, #88]
 495 0026 80F86140 		strb	r4, [r0, #97]
 496              		.loc 1 122 3 is_stmt 1 view .LVU106
 497              		.loc 1 122 34 is_stmt 0 view .LVU107
 498 002a 03F10C0C 		add	ip, r3, #12
 123:TapTempo.cpp  ****   tapDurationIndex++;
 124:TapTempo.cpp  ****   if(tapDurationIndex == totalTapValues) {
 499              		.loc 1 124 26 view .LVU108
 500 002e C468     		ldr	r4, [r0, #12]
 123:TapTempo.cpp  ****   tapDurationIndex++;
 501              		.loc 1 123 19 view .LVU109
 502 0030 0133     		adds	r3, r3, #1
 122:TapTempo.cpp  ****   tapDurationIndex++;
 503              		.loc 1 122 34 view .LVU110
 504 0032 40F82C10 		str	r1, [r0, ip, lsl #2]
 123:TapTempo.cpp  ****   tapDurationIndex++;
 505              		.loc 1 123 3 is_stmt 1 view .LVU111
 506              		.loc 1 124 3 is_stmt 0 view .LVU112
 507 0036 A342     		cmp	r3, r4
 123:TapTempo.cpp  ****   tapDurationIndex++;
 508              		.loc 1 123 19 view .LVU113
 509 0038 8365     		str	r3, [r0, #88]
 510              		.loc 1 124 3 is_stmt 1 view .LVU114
 511 003a 01D1     		bne	.L36
 125:TapTempo.cpp  ****     tapDurationIndex = 0;
 512              		.loc 1 125 5 view .LVU115
 513              		.loc 1 125 22 is_stmt 0 view .LVU116
 514 003c 0023     		movs	r3, #0
 515 003e 8365     		str	r3, [r0, #88]
 516              	.L36:
 126:TapTempo.cpp  ****   }
 127:TapTempo.cpp  ****   
 128:TapTempo.cpp  ****   beatLengthMS = getAverageTapDuration();
 517              		.loc 1 128 3 is_stmt 1 view .LVU117
 518              	.LVL28:
 519              	.LBB40:
 520              	.LBI40:
 129:TapTempo.cpp  **** }
 130:TapTempo.cpp  **** 
 131:TapTempo.cpp  **** void TapTempo::resetTapChain()
 132:TapTempo.cpp  **** {
 133:TapTempo.cpp  ****   resetTapChain(daisy::System::GetNow());
 134:TapTempo.cpp  **** }
 135:TapTempo.cpp  **** 
 136:TapTempo.cpp  **** void TapTempo::resetTapChain(unsigned long ms)
 137:TapTempo.cpp  **** {
 138:TapTempo.cpp  ****   tapsInChain = 0;
 139:TapTempo.cpp  ****   tapDurationIndex = 0;
 140:TapTempo.cpp  ****   lastResetMS = ms;
 141:TapTempo.cpp  ****   for(int i = 0; i < totalTapValues; i++) {
 142:TapTempo.cpp  ****     tapDurations[i] = 0;
 143:TapTempo.cpp  ****   }
 144:TapTempo.cpp  **** }
 145:TapTempo.cpp  **** 
 146:TapTempo.cpp  **** unsigned long TapTempo::getAverageTapDuration()
 521              		.loc 1 146 15 view .LVU118
 522              	.LBB41:
ARM GAS  C:\Users\vngel\AppData\Local\Temp\cclelx3Y.s 			page 18


 147:TapTempo.cpp  **** {
 148:TapTempo.cpp  ****   int amount = tapsInChain - 1;
 523              		.loc 1 148 3 view .LVU119
 149:TapTempo.cpp  ****   if(amount > totalTapValues)
 524              		.loc 1 149 3 view .LVU120
 525 0040 A242     		cmp	r2, r4
 526 0042 A8BF     		it	ge
 527 0044 2246     		movge	r2, r4
 528              	.LVL29:
 529              	.LBB42:
 150:TapTempo.cpp  ****     amount = totalTapValues;
 151:TapTempo.cpp  ****   
 152:TapTempo.cpp  ****   unsigned long runningTotalMS = 0;
 153:TapTempo.cpp  ****   for(int i = 0; i < amount; i++) {
 530              		.loc 1 153 20 is_stmt 0 view .LVU121
 531 0046 002A     		cmp	r2, #0
 532 0048 9646     		mov	lr, r2
 533              	.LVL30:
 534              		.loc 1 153 20 view .LVU122
 535              	.LBE42:
 152:TapTempo.cpp  ****   for(int i = 0; i < amount; i++) {
 536              		.loc 1 152 3 is_stmt 1 view .LVU123
 537              		.loc 1 153 3 view .LVU124
 538              	.LBB43:
 539              		.loc 1 153 20 view .LVU125
 540 004a 32DD     		ble	.L42
 541 004c 00F12C03 		add	r3, r0, #44
 542              	.LBE43:
 152:TapTempo.cpp  ****   for(int i = 0; i < amount; i++) {
 543              		.loc 1 152 17 is_stmt 0 view .LVU126
 544 0050 0022     		movs	r2, #0
 545 0052 03EB8E0C 		add	ip, r3, lr, lsl #2
 546              	.LVL31:
 547              	.L38:
 548              	.LBB44:
 154:TapTempo.cpp  ****     runningTotalMS += tapDurations[i];
 549              		.loc 1 154 5 is_stmt 1 view .LVU127
 550              		.loc 1 154 20 is_stmt 0 view .LVU128
 551 0056 53F8041F 		ldr	r1, [r3, #4]!
 153:TapTempo.cpp  ****     runningTotalMS += tapDurations[i];
 552              		.loc 1 153 20 view .LVU129
 553 005a 9C45     		cmp	ip, r3
 554              		.loc 1 154 20 view .LVU130
 555 005c 0A44     		add	r2, r2, r1
 556              	.LVL32:
 153:TapTempo.cpp  ****     runningTotalMS += tapDurations[i];
 557              		.loc 1 153 3 is_stmt 1 view .LVU131
 153:TapTempo.cpp  ****     runningTotalMS += tapDurations[i];
 558              		.loc 1 153 20 view .LVU132
 559 005e FAD1     		bne	.L38
 560              	.LBE44:
 155:TapTempo.cpp  ****   }
 156:TapTempo.cpp  ****   unsigned long avgTapDurationMS = runningTotalMS / amount;
 561              		.loc 1 156 17 is_stmt 0 view .LVU133
 562 0060 B2FBFEF2 		udiv	r2, r2, lr
 563              	.LVL33:
 564              	.L37:
ARM GAS  C:\Users\vngel\AppData\Local\Temp\cclelx3Y.s 			page 19


 565              		.loc 1 156 3 is_stmt 1 view .LVU134
 157:TapTempo.cpp  ****   if(avgTapDurationMS < minBeatLengthMS) {
 566              		.loc 1 157 3 view .LVU135
 567              		.loc 1 157 3 is_stmt 0 view .LVU136
 568              	.LBE41:
 569              	.LBE40:
 128:TapTempo.cpp  **** }
 570              		.loc 1 128 16 view .LVU137
 571 0064 4368     		ldr	r3, [r0, #4]
 572 0066 9A42     		cmp	r2, r3
 573 0068 38BF     		it	cc
 574 006a 1A46     		movcc	r2, r3
 575 006c 4262     		str	r2, [r0, #36]
 576              	.L31:
 129:TapTempo.cpp  **** 
 577              		.loc 1 129 1 view .LVU138
 578 006e 10BD     		pop	{r4, pc}
 579              	.LVL34:
 580              	.L55:
 110:TapTempo.cpp  ****      && duration > beatLengthMS * skippedTapThresholdLow
 581              		.loc 1 110 10 view .LVU139
 582 0070 90F86130 		ldrb	r3, [r0, #97]	@ zero_extendqisi2
 110:TapTempo.cpp  ****      && duration > beatLengthMS * skippedTapThresholdLow
 583              		.loc 1 110 6 view .LVU140
 584 0074 DBB9     		cbnz	r3, .L39
 111:TapTempo.cpp  ****      && duration < beatLengthMS * skippedTapThresholdHigh)
 585              		.loc 1 111 18 view .LVU141
 586 0076 07EE901A 		vmov	s15, r1	@ int
 111:TapTempo.cpp  ****      && duration < beatLengthMS * skippedTapThresholdHigh)
 587              		.loc 1 111 33 view .LVU142
 588 007a 90ED047A 		vldr.32	s14, [r0, #16]
 111:TapTempo.cpp  ****      && duration < beatLengthMS * skippedTapThresholdHigh)
 589              		.loc 1 111 18 view .LVU143
 590 007e F8EE676A 		vcvt.f32.u32	s13, s15
 111:TapTempo.cpp  ****      && duration < beatLengthMS * skippedTapThresholdHigh)
 591              		.loc 1 111 33 view .LVU144
 592 0082 D0ED097A 		vldr.32	s15, [r0, #36]	@ int
 593 0086 F8EE677A 		vcvt.f32.u32	s15, s15
 594 008a 27EE877A 		vmul.f32	s14, s15, s14
 111:TapTempo.cpp  ****      && duration < beatLengthMS * skippedTapThresholdHigh)
 595              		.loc 1 111 6 view .LVU145
 596 008e F4EEC76A 		vcmpe.f32	s13, s14
 597 0092 F1EE10FA 		vmrs	APSR_nzcv, FPSCR
 598 0096 0ADD     		ble	.L39
 112:TapTempo.cpp  ****   {
 599              		.loc 1 112 33 view .LVU146
 600 0098 90ED057A 		vldr.32	s14, [r0, #20]
 601 009c 67EE877A 		vmul.f32	s15, s15, s14
 112:TapTempo.cpp  ****   {
 602              		.loc 1 112 6 view .LVU147
 603 00a0 F4EEE76A 		vcmpe.f32	s13, s15
 604 00a4 F1EE10FA 		vmrs	APSR_nzcv, FPSCR
 605 00a8 05D5     		bpl	.L53
 114:TapTempo.cpp  ****     lastTapSkipped = true;
 606              		.loc 1 114 5 is_stmt 1 view .LVU148
 114:TapTempo.cpp  ****     lastTapSkipped = true;
 607              		.loc 1 114 14 is_stmt 0 view .LVU149
ARM GAS  C:\Users\vngel\AppData\Local\Temp\cclelx3Y.s 			page 20


 608 00aa 4908     		lsrs	r1, r1, #1
 609              	.LVL35:
 115:TapTempo.cpp  ****   }
 610              		.loc 1 115 5 is_stmt 1 view .LVU150
 115:TapTempo.cpp  ****   }
 611              		.loc 1 115 20 is_stmt 0 view .LVU151
 612 00ac BAE7     		b	.L33
 613              	.L39:
 119:TapTempo.cpp  ****   }
 614              		.loc 1 119 20 view .LVU152
 615 00ae 0024     		movs	r4, #0
 616 00b0 B8E7     		b	.L33
 617              	.LVL36:
 618              	.L42:
 619              	.LBB47:
 620              	.LBB46:
 621              	.LBB45:
 153:TapTempo.cpp  ****     runningTotalMS += tapDurations[i];
 622              		.loc 1 153 20 view .LVU153
 623 00b2 0022     		movs	r2, #0
 624 00b4 D6E7     		b	.L37
 625              	.LVL37:
 626              	.L53:
 153:TapTempo.cpp  ****     runningTotalMS += tapDurations[i];
 627              		.loc 1 153 20 view .LVU154
 628              	.LBE45:
 629              	.LBE46:
 630              	.LBE47:
 119:TapTempo.cpp  ****   }
 631              		.loc 1 119 20 view .LVU155
 632 00b6 1C46     		mov	r4, r3
 633 00b8 B4E7     		b	.L33
 634              		.cfi_endproc
 635              	.LFE2551:
 637 00ba 00BF     		.section	.text._ZN8TapTempo3tapEm,"ax",%progbits
 638              		.align	1
 639              		.p2align 2,,3
 640              		.global	_ZN8TapTempo3tapEm
 641              		.syntax unified
 642              		.thumb
 643              		.thumb_func
 644              		.fpu fpv5-d16
 646              	_ZN8TapTempo3tapEm:
 647              	.LVL38:
 648              	.LFB2550:
  86:TapTempo.cpp  ****   // start a new tap chain if last tap was over an amount of beats ago
 649              		.loc 1 86 1 is_stmt 1 view -0
 650              		.cfi_startproc
 651              		@ args = 0, pretend = 0, frame = 0
 652              		@ frame_needed = 0, uses_anonymous_args = 0
  88:TapTempo.cpp  ****     resetTapChain(ms);
 653              		.loc 1 88 3 view .LVU157
  86:TapTempo.cpp  ****   // start a new tap chain if last tap was over an amount of beats ago
 654              		.loc 1 86 1 is_stmt 0 view .LVU158
 655 0000 38B5     		push	{r3, r4, r5, lr}
 656              		.cfi_def_cfa_offset 16
 657              		.cfi_offset 3, -16
ARM GAS  C:\Users\vngel\AppData\Local\Temp\cclelx3Y.s 			page 21


 658              		.cfi_offset 4, -12
 659              		.cfi_offset 5, -8
 660              		.cfi_offset 14, -4
 661              	.LBB48:
 662              	.LBB49:
  64:TapTempo.cpp  **** }
 663              		.loc 1 64 10 view .LVU159
 664 0002 C26A     		ldr	r2, [r0, #44]
 665              	.LBE49:
 666              	.LBE48:
  86:TapTempo.cpp  ****   // start a new tap chain if last tap was over an amount of beats ago
 667              		.loc 1 86 1 view .LVU160
 668 0004 0446     		mov	r4, r0
 669              	.LVL39:
 670              	.LBB52:
 671              	.LBB50:
  64:TapTempo.cpp  **** }
 672              		.loc 1 64 20 view .LVU161
 673 0006 0368     		ldr	r3, [r0]
 674              	.LBE50:
 675              	.LBE52:
  86:TapTempo.cpp  ****   // start a new tap chain if last tap was over an amount of beats ago
 676              		.loc 1 86 1 view .LVU162
 677 0008 0D46     		mov	r5, r1
 678              	.LVL40:
 679              	.LBB53:
 680              	.LBI48:
  62:TapTempo.cpp  **** {
 681              		.loc 1 62 6 is_stmt 1 view .LVU163
 682              	.LBB51:
  64:TapTempo.cpp  **** }
 683              		.loc 1 64 3 view .LVU164
  64:TapTempo.cpp  **** }
 684              		.loc 1 64 20 is_stmt 0 view .LVU165
 685 000a 1344     		add	r3, r3, r2
  64:TapTempo.cpp  **** }
 686              		.loc 1 64 43 view .LVU166
 687 000c 9942     		cmp	r1, r3
 688 000e 05D2     		bcs	.L57
  64:TapTempo.cpp  **** }
 689              		.loc 1 64 72 view .LVU167
 690 0010 436A     		ldr	r3, [r0, #36]
 691 0012 8168     		ldr	r1, [r0, #8]
 692              	.LVL41:
  64:TapTempo.cpp  **** }
 693              		.loc 1 64 56 view .LVU168
 694 0014 01FB0322 		mla	r2, r1, r3, r2
  64:TapTempo.cpp  **** }
 695              		.loc 1 64 43 view .LVU169
 696 0018 9542     		cmp	r5, r2
 697 001a 0BD3     		bcc	.L58
 698              	.L57:
 699              	.LVL42:
  64:TapTempo.cpp  **** }
 700              		.loc 1 64 43 view .LVU170
 701              	.LBE51:
 702              	.LBE53:
ARM GAS  C:\Users\vngel\AppData\Local\Temp\cclelx3Y.s 			page 22


  89:TapTempo.cpp  **** 
 703              		.loc 1 89 5 is_stmt 1 view .LVU171
 704              	.LBB54:
 705              	.LBI54:
 136:TapTempo.cpp  **** {
 706              		.loc 1 136 6 view .LVU172
 707              	.LBB55:
 138:TapTempo.cpp  ****   tapDurationIndex = 0;
 708              		.loc 1 138 3 view .LVU173
 138:TapTempo.cpp  ****   tapDurationIndex = 0;
 709              		.loc 1 138 15 is_stmt 0 view .LVU174
 710 001c 0021     		movs	r1, #0
 711              	.LBB56:
 141:TapTempo.cpp  ****     tapDurations[i] = 0;
 712              		.loc 1 141 22 view .LVU175
 713 001e E268     		ldr	r2, [r4, #12]
 714              	.LBE56:
 140:TapTempo.cpp  ****   for(int i = 0; i < totalTapValues; i++) {
 715              		.loc 1 140 15 view .LVU176
 716 0020 A562     		str	r5, [r4, #40]
 717              	.LBB57:
 141:TapTempo.cpp  ****     tapDurations[i] = 0;
 718              		.loc 1 141 20 view .LVU177
 719 0022 8A42     		cmp	r2, r1
 720              	.LBE57:
 139:TapTempo.cpp  ****   lastResetMS = ms;
 721              		.loc 1 139 20 view .LVU178
 722 0024 C4E91611 		strd	r1, r1, [r4, #88]
 140:TapTempo.cpp  ****   for(int i = 0; i < totalTapValues; i++) {
 723              		.loc 1 140 3 is_stmt 1 view .LVU179
 141:TapTempo.cpp  ****     tapDurations[i] = 0;
 724              		.loc 1 141 3 view .LVU180
 725              	.LVL43:
 726              	.LBB58:
 141:TapTempo.cpp  ****     tapDurations[i] = 0;
 727              		.loc 1 141 20 view .LVU181
 728 0028 04DD     		ble	.L58
 142:TapTempo.cpp  ****   }
 729              		.loc 1 142 21 is_stmt 0 view .LVU182
 730 002a 9200     		lsls	r2, r2, #2
 731 002c 04F13000 		add	r0, r4, #48
 732              	.LVL44:
 142:TapTempo.cpp  ****   }
 733              		.loc 1 142 21 view .LVU183
 734 0030 FFF7FEFF 		bl	memset
 735              	.LVL45:
 736              	.L58:
 142:TapTempo.cpp  ****   }
 737              		.loc 1 142 21 view .LVU184
 738              	.LBE58:
 739              	.LBE55:
 740              	.LBE54:
  91:TapTempo.cpp  **** }
 741              		.loc 1 91 3 is_stmt 1 view .LVU185
  91:TapTempo.cpp  **** }
 742              		.loc 1 91 16 is_stmt 0 view .LVU186
 743 0034 2946     		mov	r1, r5
ARM GAS  C:\Users\vngel\AppData\Local\Temp\cclelx3Y.s 			page 23


 744 0036 2046     		mov	r0, r4
  92:TapTempo.cpp  **** 
 745              		.loc 1 92 1 view .LVU187
 746 0038 BDE83840 		pop	{r3, r4, r5, lr}
 747              		.cfi_restore 14
 748              		.cfi_restore 5
 749              		.cfi_restore 4
 750              		.cfi_restore 3
 751              		.cfi_def_cfa_offset 0
 752              	.LVL46:
  91:TapTempo.cpp  **** }
 753              		.loc 1 91 16 view .LVU188
 754 003c FFF7FEBF 		b	_ZN8TapTempo13addTapToChainEm
 755              	.LVL47:
  91:TapTempo.cpp  **** }
 756              		.loc 1 91 16 view .LVU189
 757              		.cfi_endproc
 758              	.LFE2550:
 760              		.section	.text._ZN8TapTempo6updateEb,"ax",%progbits
 761              		.align	1
 762              		.p2align 2,,3
 763              		.global	_ZN8TapTempo6updateEb
 764              		.syntax unified
 765              		.thumb
 766              		.thumb_func
 767              		.fpu fpv5-d16
 769              	_ZN8TapTempo6updateEb:
 770              	.LVL48:
 771              	.LFB2549:
  73:TapTempo.cpp  ****   unsigned long ms = daisy::System::GetNow();
 772              		.loc 1 73 1 is_stmt 1 view -0
 773              		.cfi_startproc
 774              		@ args = 0, pretend = 0, frame = 0
 775              		@ frame_needed = 0, uses_anonymous_args = 0
  74:TapTempo.cpp  **** 
 776              		.loc 1 74 3 view .LVU191
  73:TapTempo.cpp  ****   unsigned long ms = daisy::System::GetNow();
 777              		.loc 1 73 1 is_stmt 0 view .LVU192
 778 0000 70B5     		push	{r4, r5, r6, lr}
 779              		.cfi_def_cfa_offset 16
 780              		.cfi_offset 4, -16
 781              		.cfi_offset 5, -12
 782              		.cfi_offset 6, -8
 783              		.cfi_offset 14, -4
  73:TapTempo.cpp  ****   unsigned long ms = daisy::System::GetNow();
 784              		.loc 1 73 1 view .LVU193
 785 0002 0E46     		mov	r6, r1
 786 0004 0446     		mov	r4, r0
  74:TapTempo.cpp  **** 
 787              		.loc 1 74 43 view .LVU194
 788 0006 FFF7FEFF 		bl	_ZN5daisy6System6GetNowEv
 789              	.LVL49:
  74:TapTempo.cpp  **** 
 790              		.loc 1 74 43 view .LVU195
 791 000a 0546     		mov	r5, r0
 792              	.LVL50:
  77:TapTempo.cpp  ****     tap(ms);
ARM GAS  C:\Users\vngel\AppData\Local\Temp\cclelx3Y.s 			page 24


 793              		.loc 1 77 3 is_stmt 1 view .LVU196
 794 000c 0EB1     		cbz	r6, .L61
  77:TapTempo.cpp  ****     tap(ms);
 795              		.loc 1 77 17 is_stmt 0 discriminator 1 view .LVU197
 796 000e 237E     		ldrb	r3, [r4, #24]	@ zero_extendqisi2
 797 0010 33B1     		cbz	r3, .L66
 798              	.LVL51:
 799              	.L61:
  80:TapTempo.cpp  ****   millisSinceResetOld = millisSinceReset;
 800              		.loc 1 80 3 is_stmt 1 view .LVU198
  82:TapTempo.cpp  **** }
 801              		.loc 1 82 25 is_stmt 0 view .LVU199
 802 0012 A16A     		ldr	r1, [r4, #40]
  81:TapTempo.cpp  ****   millisSinceReset = ms - lastResetMS;
 803              		.loc 1 81 23 view .LVU200
 804 0014 E369     		ldr	r3, [r4, #28]
  82:TapTempo.cpp  **** }
 805              		.loc 1 82 25 view .LVU201
 806 0016 6D1A     		subs	r5, r5, r1
 807              	.LVL52:
  80:TapTempo.cpp  ****   millisSinceResetOld = millisSinceReset;
 808              		.loc 1 80 17 view .LVU202
 809 0018 2676     		strb	r6, [r4, #24]
  81:TapTempo.cpp  ****   millisSinceReset = ms - lastResetMS;
 810              		.loc 1 81 3 is_stmt 1 view .LVU203
  82:TapTempo.cpp  **** }
 811              		.loc 1 82 20 is_stmt 0 view .LVU204
 812 001a C4E90753 		strd	r5, r3, [r4, #28]
  83:TapTempo.cpp  **** 
 813              		.loc 1 83 1 view .LVU205
 814 001e 70BD     		pop	{r4, r5, r6, pc}
 815              	.LVL53:
 816              	.L66:
  78:TapTempo.cpp  **** 
 817              		.loc 1 78 5 is_stmt 1 view .LVU206
  78:TapTempo.cpp  **** 
 818              		.loc 1 78 8 is_stmt 0 view .LVU207
 819 0020 0146     		mov	r1, r0
 820 0022 2046     		mov	r0, r4
 821              	.LVL54:
  78:TapTempo.cpp  **** 
 822              		.loc 1 78 8 view .LVU208
 823 0024 FFF7FEFF 		bl	_ZN8TapTempo3tapEm
 824              	.LVL55:
 825 0028 F3E7     		b	.L61
 826              		.cfi_endproc
 827              	.LFE2549:
 829 002a 00BF     		.section	.text._ZN8TapTempo13resetTapChainEv,"ax",%progbits
 830              		.align	1
 831              		.p2align 2,,3
 832              		.global	_ZN8TapTempo13resetTapChainEv
 833              		.syntax unified
 834              		.thumb
 835              		.thumb_func
 836              		.fpu fpv5-d16
 838              	_ZN8TapTempo13resetTapChainEv:
 839              	.LVL56:
ARM GAS  C:\Users\vngel\AppData\Local\Temp\cclelx3Y.s 			page 25


 840              	.LFB2552:
 132:TapTempo.cpp  ****   resetTapChain(daisy::System::GetNow());
 841              		.loc 1 132 1 is_stmt 1 view -0
 842              		.cfi_startproc
 843              		@ args = 0, pretend = 0, frame = 0
 844              		@ frame_needed = 0, uses_anonymous_args = 0
 133:TapTempo.cpp  **** }
 845              		.loc 1 133 3 view .LVU210
 132:TapTempo.cpp  ****   resetTapChain(daisy::System::GetNow());
 846              		.loc 1 132 1 is_stmt 0 view .LVU211
 847 0000 10B5     		push	{r4, lr}
 848              		.cfi_def_cfa_offset 8
 849              		.cfi_offset 4, -8
 850              		.cfi_offset 14, -4
 132:TapTempo.cpp  ****   resetTapChain(daisy::System::GetNow());
 851              		.loc 1 132 1 view .LVU212
 852 0002 0446     		mov	r4, r0
 133:TapTempo.cpp  **** }
 853              		.loc 1 133 16 view .LVU213
 854 0004 FFF7FEFF 		bl	_ZN5daisy6System6GetNowEv
 855              	.LVL57:
 856              	.LBB59:
 857              	.LBI59:
 136:TapTempo.cpp  **** {
 858              		.loc 1 136 6 is_stmt 1 view .LVU214
 859              	.LBB60:
 138:TapTempo.cpp  ****   tapDurationIndex = 0;
 860              		.loc 1 138 3 view .LVU215
 138:TapTempo.cpp  ****   tapDurationIndex = 0;
 861              		.loc 1 138 15 is_stmt 0 view .LVU216
 862 0008 0021     		movs	r1, #0
 863              	.LBB61:
 141:TapTempo.cpp  ****     tapDurations[i] = 0;
 864              		.loc 1 141 22 view .LVU217
 865 000a E268     		ldr	r2, [r4, #12]
 866              	.LBE61:
 140:TapTempo.cpp  ****   for(int i = 0; i < totalTapValues; i++) {
 867              		.loc 1 140 15 view .LVU218
 868 000c A062     		str	r0, [r4, #40]
 869              	.LBB62:
 141:TapTempo.cpp  ****     tapDurations[i] = 0;
 870              		.loc 1 141 20 view .LVU219
 871 000e 8A42     		cmp	r2, r1
 872              	.LBE62:
 139:TapTempo.cpp  ****   lastResetMS = ms;
 873              		.loc 1 139 20 view .LVU220
 874 0010 C4E91611 		strd	r1, r1, [r4, #88]
 140:TapTempo.cpp  ****   for(int i = 0; i < totalTapValues; i++) {
 875              		.loc 1 140 3 is_stmt 1 view .LVU221
 141:TapTempo.cpp  ****     tapDurations[i] = 0;
 876              		.loc 1 141 3 view .LVU222
 877              	.LVL58:
 878              	.LBB63:
 141:TapTempo.cpp  ****     tapDurations[i] = 0;
 879              		.loc 1 141 20 view .LVU223
 880 0014 06DD     		ble	.L67
 142:TapTempo.cpp  ****   }
ARM GAS  C:\Users\vngel\AppData\Local\Temp\cclelx3Y.s 			page 26


 881              		.loc 1 142 21 is_stmt 0 view .LVU224
 882 0016 04F13000 		add	r0, r4, #48
 883              	.LVL59:
 142:TapTempo.cpp  ****   }
 884              		.loc 1 142 21 view .LVU225
 885 001a 9200     		lsls	r2, r2, #2
 886              	.LBE63:
 887              	.LBE60:
 888              	.LBE59:
 134:TapTempo.cpp  **** 
 889              		.loc 1 134 1 view .LVU226
 890 001c BDE81040 		pop	{r4, lr}
 891              		.cfi_remember_state
 892              		.cfi_restore 14
 893              		.cfi_restore 4
 894              		.cfi_def_cfa_offset 0
 895              	.LVL60:
 896              	.LBB66:
 897              	.LBB65:
 898              	.LBB64:
 142:TapTempo.cpp  ****   }
 899              		.loc 1 142 21 view .LVU227
 900 0020 FFF7FEBF 		b	memset
 901              	.LVL61:
 902              	.L67:
 903              		.cfi_restore_state
 142:TapTempo.cpp  ****   }
 904              		.loc 1 142 21 view .LVU228
 905              	.LBE64:
 906              	.LBE65:
 907              	.LBE66:
 134:TapTempo.cpp  **** 
 908              		.loc 1 134 1 view .LVU229
 909 0024 10BD     		pop	{r4, pc}
 134:TapTempo.cpp  **** 
 910              		.loc 1 134 1 view .LVU230
 911              		.cfi_endproc
 912              	.LFE2552:
 914 0026 00BF     		.section	.text._ZN8TapTempo13resetTapChainEm,"ax",%progbits
 915              		.align	1
 916              		.p2align 2,,3
 917              		.global	_ZN8TapTempo13resetTapChainEm
 918              		.syntax unified
 919              		.thumb
 920              		.thumb_func
 921              		.fpu fpv5-d16
 923              	_ZN8TapTempo13resetTapChainEm:
 924              	.LVL62:
 925              	.LFB2553:
 137:TapTempo.cpp  ****   tapsInChain = 0;
 926              		.loc 1 137 1 is_stmt 1 view -0
 927              		.cfi_startproc
 928              		@ args = 0, pretend = 0, frame = 0
 929              		@ frame_needed = 0, uses_anonymous_args = 0
 930              		@ link register save eliminated.
 138:TapTempo.cpp  ****   tapDurationIndex = 0;
 931              		.loc 1 138 3 view .LVU232
ARM GAS  C:\Users\vngel\AppData\Local\Temp\cclelx3Y.s 			page 27


 138:TapTempo.cpp  ****   tapDurationIndex = 0;
 932              		.loc 1 138 15 is_stmt 0 view .LVU233
 933 0000 0023     		movs	r3, #0
 934              	.LBB67:
 141:TapTempo.cpp  ****     tapDurations[i] = 0;
 935              		.loc 1 141 22 view .LVU234
 936 0002 C268     		ldr	r2, [r0, #12]
 937              	.LBE67:
 140:TapTempo.cpp  ****   for(int i = 0; i < totalTapValues; i++) {
 938              		.loc 1 140 15 view .LVU235
 939 0004 8162     		str	r1, [r0, #40]
 940              	.LBB68:
 141:TapTempo.cpp  ****     tapDurations[i] = 0;
 941              		.loc 1 141 20 view .LVU236
 942 0006 9A42     		cmp	r2, r3
 943              	.LBE68:
 139:TapTempo.cpp  ****   lastResetMS = ms;
 944              		.loc 1 139 20 view .LVU237
 945 0008 C0E91633 		strd	r3, r3, [r0, #88]
 140:TapTempo.cpp  ****   for(int i = 0; i < totalTapValues; i++) {
 946              		.loc 1 140 3 is_stmt 1 view .LVU238
 141:TapTempo.cpp  ****     tapDurations[i] = 0;
 947              		.loc 1 141 3 view .LVU239
 948              	.LVL63:
 949              	.LBB69:
 141:TapTempo.cpp  ****     tapDurations[i] = 0;
 950              		.loc 1 141 20 view .LVU240
 951 000c 04DD     		ble	.L70
 142:TapTempo.cpp  ****   }
 952              		.loc 1 142 21 is_stmt 0 view .LVU241
 953 000e 9200     		lsls	r2, r2, #2
 954 0010 1946     		mov	r1, r3
 955              	.LVL64:
 142:TapTempo.cpp  ****   }
 956              		.loc 1 142 21 view .LVU242
 957 0012 3030     		adds	r0, r0, #48
 958              	.LVL65:
 142:TapTempo.cpp  ****   }
 959              		.loc 1 142 21 view .LVU243
 960 0014 FFF7FEBF 		b	memset
 961              	.LVL66:
 962              	.L70:
 142:TapTempo.cpp  ****   }
 963              		.loc 1 142 21 view .LVU244
 964              	.LBE69:
 144:TapTempo.cpp  **** 
 965              		.loc 1 144 1 view .LVU245
 966 0018 7047     		bx	lr
 967              		.cfi_endproc
 968              	.LFE2553:
 970 001a 00BF     		.section	.text._ZN8TapTempo21getAverageTapDurationEv,"ax",%progbits
 971              		.align	1
 972              		.p2align 2,,3
 973              		.global	_ZN8TapTempo21getAverageTapDurationEv
 974              		.syntax unified
 975              		.thumb
 976              		.thumb_func
ARM GAS  C:\Users\vngel\AppData\Local\Temp\cclelx3Y.s 			page 28


 977              		.fpu fpv5-d16
 979              	_ZN8TapTempo21getAverageTapDurationEv:
 980              	.LVL67:
 981              	.LFB2554:
 147:TapTempo.cpp  ****   int amount = tapsInChain - 1;
 982              		.loc 1 147 1 is_stmt 1 view -0
 983              		.cfi_startproc
 984              		@ args = 0, pretend = 0, frame = 0
 985              		@ frame_needed = 0, uses_anonymous_args = 0
 148:TapTempo.cpp  ****   if(amount > totalTapValues)
 986              		.loc 1 148 3 view .LVU247
 148:TapTempo.cpp  ****   if(amount > totalTapValues)
 987              		.loc 1 148 7 is_stmt 0 view .LVU248
 988 0000 C36D     		ldr	r3, [r0, #92]
 989 0002 C168     		ldr	r1, [r0, #12]
 990 0004 5A1E     		subs	r2, r3, #1
 991              	.LVL68:
 149:TapTempo.cpp  ****     amount = totalTapValues;
 992              		.loc 1 149 3 is_stmt 1 view .LVU249
 993 0006 8A42     		cmp	r2, r1
 994 0008 A8BF     		it	ge
 995 000a 0A46     		movge	r2, r1
 996              	.LVL69:
 152:TapTempo.cpp  ****   for(int i = 0; i < amount; i++) {
 997              		.loc 1 152 3 view .LVU250
 153:TapTempo.cpp  ****     runningTotalMS += tapDurations[i];
 998              		.loc 1 153 3 view .LVU251
 999              	.LBB70:
 153:TapTempo.cpp  ****     runningTotalMS += tapDurations[i];
 1000              		.loc 1 153 20 view .LVU252
 1001 000c 002A     		cmp	r2, #0
 1002 000e 13DD     		ble	.L75
 1003 0010 00F12C03 		add	r3, r0, #44
 1004              	.LVL70:
 153:TapTempo.cpp  ****     runningTotalMS += tapDurations[i];
 1005              		.loc 1 153 20 is_stmt 0 view .LVU253
 1006              	.LBE70:
 147:TapTempo.cpp  ****   int amount = tapsInChain - 1;
 1007              		.loc 1 147 1 view .LVU254
 1008 0014 00B5     		push	{lr}
 1009              		.cfi_def_cfa_offset 4
 1010              		.cfi_offset 14, -4
 1011 0016 9646     		mov	lr, r2
 152:TapTempo.cpp  ****   for(int i = 0; i < amount; i++) {
 1012              		.loc 1 152 17 view .LVU255
 1013 0018 0022     		movs	r2, #0
 1014 001a 03EB8E0C 		add	ip, r3, lr, lsl #2
 1015              	.LVL71:
 1016              	.L74:
 1017              	.LBB71:
 154:TapTempo.cpp  ****   }
 1018              		.loc 1 154 5 is_stmt 1 discriminator 2 view .LVU256
 154:TapTempo.cpp  ****   }
 1019              		.loc 1 154 20 is_stmt 0 discriminator 2 view .LVU257
 1020 001e 53F8041F 		ldr	r1, [r3, #4]!
 153:TapTempo.cpp  ****     runningTotalMS += tapDurations[i];
 1021              		.loc 1 153 20 discriminator 2 view .LVU258
ARM GAS  C:\Users\vngel\AppData\Local\Temp\cclelx3Y.s 			page 29


 1022 0022 9C45     		cmp	ip, r3
 154:TapTempo.cpp  ****   }
 1023              		.loc 1 154 20 discriminator 2 view .LVU259
 1024 0024 0A44     		add	r2, r2, r1
 1025              	.LVL72:
 153:TapTempo.cpp  ****     runningTotalMS += tapDurations[i];
 1026              		.loc 1 153 3 is_stmt 1 discriminator 2 view .LVU260
 153:TapTempo.cpp  ****     runningTotalMS += tapDurations[i];
 1027              		.loc 1 153 20 discriminator 2 view .LVU261
 1028 0026 FAD1     		bne	.L74
 1029              	.LBE71:
 156:TapTempo.cpp  ****   if(avgTapDurationMS < minBeatLengthMS) {
 1030              		.loc 1 156 3 view .LVU262
 1031              		.loc 1 157 3 view .LVU263
 158:TapTempo.cpp  ****     return minBeatLengthMS;
 159:TapTempo.cpp  ****   }
 160:TapTempo.cpp  ****   return avgTapDurationMS;
 161:TapTempo.cpp  **** }
 1032              		.loc 1 161 1 is_stmt 0 view .LVU264
 1033 0028 4068     		ldr	r0, [r0, #4]
 1034              	.LVL73:
 156:TapTempo.cpp  ****   if(avgTapDurationMS < minBeatLengthMS) {
 1035              		.loc 1 156 17 view .LVU265
 1036 002a B2FBFEF2 		udiv	r2, r2, lr
 1037              	.LVL74:
 1038              		.loc 1 161 1 view .LVU266
 1039 002e 9042     		cmp	r0, r2
 1040 0030 38BF     		it	cc
 1041 0032 1046     		movcc	r0, r2
 1042 0034 5DF804FB 		ldr	pc, [sp], #4
 1043              	.LVL75:
 1044              	.L75:
 1045              		.cfi_def_cfa_offset 0
 1046              		.cfi_restore 14
 1047              	.LBB72:
 153:TapTempo.cpp  ****     runningTotalMS += tapDurations[i];
 1048              		.loc 1 153 20 view .LVU267
 1049 0038 0022     		movs	r2, #0
 1050              	.LBE72:
 156:TapTempo.cpp  ****   if(avgTapDurationMS < minBeatLengthMS) {
 1051              		.loc 1 156 3 is_stmt 1 view .LVU268
 157:TapTempo.cpp  ****     return minBeatLengthMS;
 1052              		.loc 1 157 3 view .LVU269
 1053              		.loc 1 161 1 is_stmt 0 view .LVU270
 1054 003a 4068     		ldr	r0, [r0, #4]
 1055              	.LVL76:
 1056              		.loc 1 161 1 view .LVU271
 1057 003c 9042     		cmp	r0, r2
 1058 003e 38BF     		it	cc
 1059 0040 1046     		movcc	r0, r2
 1060 0042 7047     		bx	lr
 1061              		.cfi_endproc
 1062              	.LFE2554:
 1064              		.section	.text._ZN8TapTempo23setBeatsUntilChainResetEi,"ax",%progbits
 1065              		.align	1
 1066              		.p2align 2,,3
 1067              		.global	_ZN8TapTempo23setBeatsUntilChainResetEi
ARM GAS  C:\Users\vngel\AppData\Local\Temp\cclelx3Y.s 			page 30


 1068              		.syntax unified
 1069              		.thumb
 1070              		.thumb_func
 1071              		.fpu fpv5-d16
 1073              	_ZN8TapTempo23setBeatsUntilChainResetEi:
 1074              	.LVL77:
 1075              	.LFB2555:
 162:TapTempo.cpp  **** 
 163:TapTempo.cpp  **** void TapTempo::setBeatsUntilChainReset(int beats)
 164:TapTempo.cpp  **** {
 1076              		.loc 1 164 1 is_stmt 1 view -0
 1077              		.cfi_startproc
 1078              		@ args = 0, pretend = 0, frame = 0
 1079              		@ frame_needed = 0, uses_anonymous_args = 0
 1080              		@ link register save eliminated.
 165:TapTempo.cpp  ****   if(beats < 2)
 1081              		.loc 1 165 3 view .LVU273
 166:TapTempo.cpp  ****   {
 167:TapTempo.cpp  ****     beats = 2;
 168:TapTempo.cpp  ****   }
 169:TapTempo.cpp  ****   beatsUntilChainReset = beats;
 1082              		.loc 1 169 3 view .LVU274
 1083              		.loc 1 169 24 is_stmt 0 view .LVU275
 1084 0000 0229     		cmp	r1, #2
 1085 0002 B8BF     		it	lt
 1086 0004 0221     		movlt	r1, #2
 1087              	.LVL78:
 1088              		.loc 1 169 24 view .LVU276
 1089 0006 8160     		str	r1, [r0, #8]
 170:TapTempo.cpp  **** }
 1090              		.loc 1 170 1 view .LVU277
 1091 0008 7047     		bx	lr
 1092              		.cfi_endproc
 1093              	.LFE2555:
 1095 000a 00BF     		.section	.text._ZN8TapTempo17setTotalTapValuesEi,"ax",%progbits
 1096              		.align	1
 1097              		.p2align 2,,3
 1098              		.global	_ZN8TapTempo17setTotalTapValuesEi
 1099              		.syntax unified
 1100              		.thumb
 1101              		.thumb_func
 1102              		.fpu fpv5-d16
 1104              	_ZN8TapTempo17setTotalTapValuesEi:
 1105              	.LVL79:
 1106              	.LFB2556:
 171:TapTempo.cpp  **** 
 172:TapTempo.cpp  **** void TapTempo::setTotalTapValues(int total)
 173:TapTempo.cpp  **** {
 1107              		.loc 1 173 1 is_stmt 1 view -0
 1108              		.cfi_startproc
 1109              		@ args = 0, pretend = 0, frame = 0
 1110              		@ frame_needed = 0, uses_anonymous_args = 0
 1111              		@ link register save eliminated.
 174:TapTempo.cpp  ****   if(total < 2)
 1112              		.loc 1 174 3 view .LVU279
 1113 0000 0A29     		cmp	r1, #10
 1114 0002 A8BF     		it	ge
ARM GAS  C:\Users\vngel\AppData\Local\Temp\cclelx3Y.s 			page 31


 1115 0004 0A21     		movge	r1, #10
 1116              	.LVL80:
 175:TapTempo.cpp  ****   {
 176:TapTempo.cpp  ****     total = 2;
 177:TapTempo.cpp  ****   }
 178:TapTempo.cpp  ****   else if(total > TapTempo::MAX_TAP_VALUES)
 179:TapTempo.cpp  ****   {
 180:TapTempo.cpp  ****     total = TapTempo::MAX_TAP_VALUES;
 181:TapTempo.cpp  ****   }
 182:TapTempo.cpp  ****   totalTapValues = total;
 1117              		.loc 1 182 3 view .LVU280
 1118              		.loc 1 182 18 is_stmt 0 view .LVU281
 1119 0006 0229     		cmp	r1, #2
 1120 0008 B8BF     		it	lt
 1121 000a 0221     		movlt	r1, #2
 1122              	.LVL81:
 1123              		.loc 1 182 18 view .LVU282
 1124 000c C160     		str	r1, [r0, #12]
 183:TapTempo.cpp  **** }
 1125              		.loc 1 183 1 view .LVU283
 1126 000e 7047     		bx	lr
 1127              		.cfi_endproc
 1128              	.LFE2556:
 1130              		.text
 1131              	.Letext0:
 1132              		.file 3 "c:\\program files\\daisytoolchain\\arm-none-eabi\\include\\machine\\_default_types.h"
 1133              		.file 4 "c:\\program files\\daisytoolchain\\arm-none-eabi\\include\\sys\\_stdint.h"
 1134              		.file 5 "c:\\program files\\daisytoolchain\\arm-none-eabi\\include\\stdint.h"
 1135              		.file 6 "c:\\program files\\daisytoolchain\\lib\\gcc\\arm-none-eabi\\10.2.1\\include\\stddef.h"
 1136              		.file 7 "c:\\program files\\daisytoolchain\\arm-none-eabi\\include\\c++\\10.2.1\\bits\\std_abs.h"
 1137              		.file 8 "c:\\program files\\daisytoolchain\\arm-none-eabi\\include\\c++\\10.2.1\\cstdlib"
 1138              		.file 9 "c:\\program files\\daisytoolchain\\arm-none-eabi\\include\\c++\\10.2.1\\cstdint"
 1139              		.file 10 "c:\\program files\\daisytoolchain\\arm-none-eabi\\include\\c++\\10.2.1\\type_traits"
 1140              		.file 11 "c:\\program files\\daisytoolchain\\arm-none-eabi\\include\\c++\\10.2.1\\debug\\debug.h"
 1141              		.file 12 "c:\\program files\\daisytoolchain\\arm-none-eabi\\include\\c++\\10.2.1\\arm-none-eabi\\t
 1142              		.file 13 "c:\\program files\\daisytoolchain\\arm-none-eabi\\include\\c++\\10.2.1\\bits\\algorithmf
 1143              		.file 14 "c:\\program files\\daisytoolchain\\arm-none-eabi\\include\\c++\\10.2.1\\bits\\stl_pair.h
 1144              		.file 15 "c:\\program files\\daisytoolchain\\arm-none-eabi\\include\\c++\\10.2.1\\bits\\exception_
 1145              		.file 16 "c:\\program files\\daisytoolchain\\arm-none-eabi\\include\\c++\\10.2.1\\cstdarg"
 1146              		.file 17 "c:\\program files\\daisytoolchain\\arm-none-eabi\\include\\c++\\10.2.1\\cstdio"
 1147              		.file 18 "c:\\program files\\daisytoolchain\\arm-none-eabi\\include\\c++\\10.2.1\\cstring"
 1148              		.file 19 "c:\\program files\\daisytoolchain\\arm-none-eabi\\include\\c++\\10.2.1\\bits\\predefined
 1149              		.file 20 "c:\\program files\\daisytoolchain\\arm-none-eabi\\include\\c++\\10.2.1\\ext\\type_traits
 1150              		.file 21 "c:\\program files\\daisytoolchain\\arm-none-eabi\\include\\sys\\_types.h"
 1151              		.file 22 "<built-in>"
 1152              		.file 23 "c:\\program files\\daisytoolchain\\arm-none-eabi\\include\\sys\\reent.h"
 1153              		.file 24 "c:\\program files\\daisytoolchain\\arm-none-eabi\\include\\sys\\lock.h"
 1154              		.file 25 "c:\\program files\\daisytoolchain\\arm-none-eabi\\include\\math.h"
 1155              		.file 26 "c:\\program files\\daisytoolchain\\arm-none-eabi\\include\\stdlib.h"
 1156              		.file 27 "c:\\program files\\daisytoolchain\\arm-none-eabi\\include\\c++\\10.2.1\\math.h"
 1157              		.file 28 "c:\\program files\\daisytoolchain\\arm-none-eabi\\include\\c++\\10.2.1\\stdlib.h"
 1158              		.file 29 "../../libDaisy//src/daisy_core.h"
 1159              		.file 30 "../../libDaisy//src/per/tim.h"
 1160              		.file 31 "../../libDaisy//src/sys/system.h"
 1161              		.file 32 "../../libDaisy//src/util/wav_format.h"
 1162              		.file 33 "../../libDaisy//src/dev/max11300.h"
 1163              		.file 34 "../../libDaisy//src/daisy_seed.h"
ARM GAS  C:\Users\vngel\AppData\Local\Temp\cclelx3Y.s 			page 32


 1164              		.file 35 "c:\\program files\\daisytoolchain\\lib\\gcc\\arm-none-eabi\\10.2.1\\include\\stdarg.h"
 1165              		.file 36 "c:\\program files\\daisytoolchain\\arm-none-eabi\\include\\stdio.h"
 1166              		.file 37 "c:\\program files\\daisytoolchain\\arm-none-eabi\\include\\string.h"
 1167              		.file 38 "TapTempo.h"
 1168              		.file 39 "../../libDaisy//src/dev/sr_595.h"
ARM GAS  C:\Users\vngel\AppData\Local\Temp\cclelx3Y.s 			page 33

